ASxxxx Linker V03.00 + NoICE + sdld,  page 1.
Hexadecimal  [32-Bits]

Area                                    Addr        Size        Decimal Bytes (Attributes)
--------------------------------        ----        ----        ------- ----- ------------
CABS                                00000000    00000000 =           0. bytes (ABS,CON,CODE)

      Value  Global                              Global Defined In Module
      -----  --------------------------------   ------------------------
C:   00000000  l_BIT_BANK                      
C:   00000000  l_CABS                          
C:   00000000  l_GSINIT1                       
C:   00000000  l_GSINIT5                       
C:   00000000  l_IABS                          
C:   00000000  l_PSEG                          
C:   00000000  l_REG_BANK_1                    
C:   00000000  l_REG_BANK_2                    
C:   00000000  l_REG_BANK_3                    
C:   00000000  l_RSEG                          
C:   00000000  l_RSEG0                         
C:   00000000  l_RSEG1                         
C:   00000000  l_XABS                          
C:   00000000  l_XINIT                         
C:   00000000  l_XISEG                         
C:   00000000  l__CODE                         
C:   00000000  s_BSEG                          
C:   00000000  s_CABS                          
C:   00000000  s_DSEG                          
C:   00000000  s_HOME                          
C:   00000000  s_IABS                          
C:   00000000  s_REG_BANK_0                    
C:   00000000  s_RSEG                          
C:   00000000  s_RSEG0                         
C:   00000000  s_RSEG1                         
C:   00000000  s_XABS                          
C:   00000001  s_PSEG                          
C:   00000001  s_XSEG                          
C:   00000002  l_BSEG_BYTES                    
C:   00000003  l_GSFINAL                       
C:   00000003  l_GSINIT0                       
C:   00000006  l_ISEG                          
C:   00000006  l_OSEG                          
C:   00000008  l_REG_BANK_0                    
C:   00000008  s_REG_BANK_1                    
C:   0000000A  l_BSEG                          
C:   0000000A  l_GSINIT2                       
C:   00000010  s_REG_BANK_2                    
C:   00000011  s_OSEG                          
C:   00000017  s_ISEG                          
C:   00000018  s_BIT_BANK                      
C:   00000018  s_REG_BANK_3                    
C:   00000020  s_BSEG_BYTES                    
C:   00000020  s__CODE                         
C:   00000022  l_GSINIT3                       
C:   0000002A  l_GSINIT4                       
C:   00000044  l_GSINIT                        
C:   00000050  l_XSEG                          
C:   00000051  l_HOME                          
C:   00000051  s_GSINIT0                       
ASxxxx Linker V03.00 + NoICE + sdld,  page 2.
Hexadecimal  [32-Bits]

Area                                    Addr        Size        Decimal Bytes (Attributes)
--------------------------------        ----        ----        ------- ----- ------------
CABS                                00000000    00000000 =           0. bytes (ABS,CON,CODE)

      Value  Global                              Global Defined In Module
      -----  --------------------------------   ------------------------
C:   00000051  s_XISEG                         
C:   00000054  s_GSINIT1                       
C:   00000054  s_GSINIT2                       
C:   0000005E  s_GSINIT3                       
C:   0000007A  s_SSEG                          
C:   0000007D  l_DSEG                          
C:   00000080  s_GSINIT4                       
C:   00000086  l_SSEG                          
C:   000000AA  s_GSINIT                        
C:   000000AA  s_GSINIT5                       
C:   000000EE  s_GSFINAL                       
C:   000000F1  s_CSEG                          
C:   00000100  l_IRAM                          
C:   000001DB  l_CONST                         
C:   000018D4  l_CSEG                          
C:   000019C5  s_CONST                         
C:   00001BA0  s_XINIT                         

ASxxxx Linker V03.00 + NoICE + sdld,  page 3.
Hexadecimal  [32-Bits]

Area                                    Addr        Size        Decimal Bytes (Attributes)
--------------------------------        ----        ----        ------- ----- ------------
.  .ABS.                            00000000    00000000 =           0. bytes (ABS,CON)

      Value  Global                              Global Defined In Module
      -----  --------------------------------   ------------------------
     00000000  .__.ABS.                           _fs2ulong
     00000080  G$P0$0$0                           Lab5
     00000080  G$P0_0$0$0                         Lab5
     00000080  _P0                                Lab5
     00000080  _P0_0                              Lab5
     00000081  G$P0_1$0$0                         Lab5
     00000081  G$SP$0$0                           Lab5
     00000081  _P0_1                              Lab5
     00000081  _SP                                Lab5
     00000082  G$DPL$0$0                          Lab5
     00000082  G$P0_2$0$0                         Lab5
     00000082  _DPL                               Lab5
     00000082  _P0_2                              Lab5
     00000083  G$BUS_SCL$0$0                      Lab5
     00000083  G$DPH$0$0                          Lab5
     00000083  G$P0_3$0$0                         Lab5
     00000083  _BUS_SCL                           Lab5
     00000083  _DPH                               Lab5
     00000083  _P0_3                              Lab5
     00000084  G$P0_4$0$0                         Lab5
     00000084  G$P4$0$0                           Lab5
     00000084  _P0_4                              Lab5
     00000084  _P4                                Lab5
     00000085  G$P0_5$0$0                         Lab5
     00000085  G$P5$0$0                           Lab5
     00000085  _P0_5                              Lab5
     00000085  _P5                                Lab5
     00000086  G$P0_6$0$0                         Lab5
     00000086  G$P6$0$0                           Lab5
     00000086  _P0_6                              Lab5
     00000086  _P6                                Lab5
     00000087  G$P0_7$0$0                         Lab5
     00000087  G$PCON$0$0                         Lab5
     00000087  _P0_7                              Lab5
     00000087  _PCON                              Lab5
     00000088  G$IT0$0$0                          Lab5
     00000088  G$TCON$0$0                         Lab5
     00000088  _IT0                               Lab5
     00000088  _TCON                              Lab5
     00000089  G$IE0$0$0                          Lab5
     00000089  G$TMOD$0$0                         Lab5
     00000089  _IE0                               Lab5
     00000089  _TMOD                              Lab5
     0000008A  G$IT1$0$0                          Lab5
     0000008A  G$TL0$0$0                          Lab5
     0000008A  _IT1                               Lab5
     0000008A  _TL0                               Lab5
     0000008B  G$IE1$0$0                          Lab5
     0000008B  G$TL1$0$0                          Lab5
     0000008B  _IE1                               Lab5
ASxxxx Linker V03.00 + NoICE + sdld,  page 4.
Hexadecimal  [32-Bits]

Area                                    Addr        Size        Decimal Bytes (Attributes)
--------------------------------        ----        ----        ------- ----- ------------
.  .ABS.                            00000000    00000000 =           0. bytes (ABS,CON)

      Value  Global                              Global Defined In Module
      -----  --------------------------------   ------------------------
     0000008B  _TL1                               Lab5
     0000008C  G$TH0$0$0                          Lab5
     0000008C  G$TR0$0$0                          Lab5
     0000008C  _TH0                               Lab5
     0000008C  _TR0                               Lab5
     0000008D  G$TF0$0$0                          Lab5
     0000008D  G$TH1$0$0                          Lab5
     0000008D  _TF0                               Lab5
     0000008D  _TH1                               Lab5
     0000008E  G$CKCON$0$0                        Lab5
     0000008E  G$TR1$0$0                          Lab5
     0000008E  _CKCON                             Lab5
     0000008E  _TR1                               Lab5
     0000008F  G$PSCTL$0$0                        Lab5
     0000008F  G$TF1$0$0                          Lab5
     0000008F  _PSCTL                             Lab5
     0000008F  _TF1                               Lab5
     00000090  G$P1$0$0                           Lab5
     00000090  G$P1_0$0$0                         Lab5
     00000090  _P1                                Lab5
     00000090  _P1_0                              Lab5
     00000091  G$P1_1$0$0                         Lab5
     00000091  G$TMR3CN$0$0                       Lab5
     00000091  _P1_1                              Lab5
     00000091  _TMR3CN                            Lab5
     00000092  G$P1_2$0$0                         Lab5
     00000092  G$TMR3RLL$0$0                      Lab5
     00000092  _P1_2                              Lab5
     00000092  _TMR3RLL                           Lab5
     00000093  G$P1_3$0$0                         Lab5
     00000093  G$TMR3RLH$0$0                      Lab5
     00000093  _P1_3                              Lab5
     00000093  _TMR3RLH                           Lab5
     00000094  G$P1_4$0$0                         Lab5
     00000094  G$TMR3L$0$0                        Lab5
     00000094  _P1_4                              Lab5
     00000094  _TMR3L                             Lab5
     00000095  G$P1_5$0$0                         Lab5
     00000095  G$TMR3H$0$0                        Lab5
     00000095  _P1_5                              Lab5
     00000095  _TMR3H                             Lab5
     00000096  G$P1_6$0$0                         Lab5
     00000096  G$P7$0$0                           Lab5
     00000096  _P1_6                              Lab5
     00000096  _P7                                Lab5
     00000097  G$P1_7$0$0                         Lab5
     00000097  _P1_7                              Lab5
     00000098  G$RI$0$0                           Lab5
     00000098  G$RI0$0$0                          Lab5
     00000098  G$SCON$0$0                         Lab5
     00000098  G$SCON0$0$0                        Lab5
ASxxxx Linker V03.00 + NoICE + sdld,  page 5.
Hexadecimal  [32-Bits]

Area                                    Addr        Size        Decimal Bytes (Attributes)
--------------------------------        ----        ----        ------- ----- ------------
.  .ABS.                            00000000    00000000 =           0. bytes (ABS,CON)

      Value  Global                              Global Defined In Module
      -----  --------------------------------   ------------------------
     00000098  _RI                                Lab5
     00000098  _RI0                               Lab5
     00000098  _SCON                              Lab5
     00000098  _SCON0                             Lab5
     00000099  G$SBUF$0$0                         Lab5
     00000099  G$SBUF0$0$0                        Lab5
     00000099  G$TI$0$0                           Lab5
     00000099  G$TI0$0$0                          Lab5
     00000099  _SBUF                              Lab5
     00000099  _SBUF0                             Lab5
     00000099  _TI                                Lab5
     00000099  _TI0                               Lab5
     0000009A  G$RB8$0$0                          Lab5
     0000009A  G$RB80$0$0                         Lab5
     0000009A  G$SPI0CFG$0$0                      Lab5
     0000009A  _RB8                               Lab5
     0000009A  _RB80                              Lab5
     0000009A  _SPI0CFG                           Lab5
     0000009B  G$SPI0DAT$0$0                      Lab5
     0000009B  G$TB8$0$0                          Lab5
     0000009B  G$TB80$0$0                         Lab5
     0000009B  _SPI0DAT                           Lab5
     0000009B  _TB8                               Lab5
     0000009B  _TB80                              Lab5
     0000009C  G$ADC1$0$0                         Lab5
     0000009C  G$REN$0$0                          Lab5
     0000009C  G$REN0$0$0                         Lab5
     0000009C  _ADC1                              Lab5
     0000009C  _REN                               Lab5
     0000009C  _REN0                              Lab5
     0000009D  G$MCE0$0$0                         Lab5
     0000009D  G$SM2$0$0                          Lab5
     0000009D  G$SM20$0$0                         Lab5
     0000009D  G$SPI0CKR$0$0                      Lab5
     0000009D  _MCE0                              Lab5
     0000009D  _SM2                               Lab5
     0000009D  _SM20                              Lab5
     0000009D  _SPI0CKR                           Lab5
     0000009E  G$CPT0CN$0$0                       Lab5
     0000009E  G$SM1$0$0                          Lab5
     0000009E  G$SM10$0$0                         Lab5
     0000009E  _CPT0CN                            Lab5
     0000009E  _SM1                               Lab5
     0000009E  _SM10                              Lab5
     0000009F  G$CPT1CN$0$0                       Lab5
     0000009F  G$S0MODE$0$0                       Lab5
     0000009F  G$SM0$0$0                          Lab5
     0000009F  G$SM00$0$0                         Lab5
     0000009F  _CPT1CN                            Lab5
     0000009F  _S0MODE                            Lab5
     0000009F  _SM0                               Lab5
ASxxxx Linker V03.00 + NoICE + sdld,  page 6.
Hexadecimal  [32-Bits]

Area                                    Addr        Size        Decimal Bytes (Attributes)
--------------------------------        ----        ----        ------- ----- ------------
.  .ABS.                            00000000    00000000 =           0. bytes (ABS,CON)

      Value  Global                              Global Defined In Module
      -----  --------------------------------   ------------------------
     0000009F  _SM00                              Lab5
     000000A0  G$P2$0$0                           Lab5
     000000A0  G$P2_0$0$0                         Lab5
     000000A0  _P2                                Lab5
     000000A0  _P2_0                              Lab5
     000000A1  G$EMI0TC$0$0                       Lab5
     000000A1  G$P2_1$0$0                         Lab5
     000000A1  _EMI0TC                            Lab5
     000000A1  _P2_1                              Lab5
     000000A2  G$P2_2$0$0                         Lab5
     000000A2  _P2_2                              Lab5
     000000A3  G$EMI0CF$0$0                       Lab5
     000000A3  G$P2_3$0$0                         Lab5
     000000A3  _EMI0CF                            Lab5
     000000A3  _P2_3                              Lab5
     000000A4  G$P0MDOUT$0$0                      Lab5
     000000A4  G$P2_4$0$0                         Lab5
     000000A4  G$PRT0CF$0$0                       Lab5
     000000A4  _P0MDOUT                           Lab5
     000000A4  _P2_4                              Lab5
     000000A4  _PRT0CF                            Lab5
     000000A5  G$P1MDOUT$0$0                      Lab5
     000000A5  G$P2_5$0$0                         Lab5
     000000A5  G$PRT1CF$0$0                       Lab5
     000000A5  _P1MDOUT                           Lab5
     000000A5  _P2_5                              Lab5
     000000A5  _PRT1CF                            Lab5
     000000A6  G$P2MDOUT$0$0                      Lab5
     000000A6  G$P2_6$0$0                         Lab5
     000000A6  G$PRT2CF$0$0                       Lab5
     000000A6  _P2MDOUT                           Lab5
     000000A6  _P2_6                              Lab5
     000000A6  _PRT2CF                            Lab5
     000000A7  G$P2_7$0$0                         Lab5
     000000A7  G$P3MDOUT$0$0                      Lab5
     000000A7  G$PRT3CF$0$0                       Lab5
     000000A7  _P2_7                              Lab5
     000000A7  _P3MDOUT                           Lab5
     000000A7  _PRT3CF                            Lab5
     000000A8  G$EX0$0$0                          Lab5
     000000A8  G$IE$0$0                           Lab5
     000000A8  _EX0                               Lab5
     000000A8  _IE                                Lab5
     000000A9  G$ET0$0$0                          Lab5
     000000A9  G$SADDR0$0$0                       Lab5
     000000A9  _ET0                               Lab5
     000000A9  _SADDR0                            Lab5
     000000AA  G$ADC1CN$0$0                       Lab5
     000000AA  G$EX1$0$0                          Lab5
     000000AA  _ADC1CN                            Lab5
     000000AA  _EX1                               Lab5
ASxxxx Linker V03.00 + NoICE + sdld,  page 7.
Hexadecimal  [32-Bits]

Area                                    Addr        Size        Decimal Bytes (Attributes)
--------------------------------        ----        ----        ------- ----- ------------
.  .ABS.                            00000000    00000000 =           0. bytes (ABS,CON)

      Value  Global                              Global Defined In Module
      -----  --------------------------------   ------------------------
     000000AB  G$ADC1CF$0$0                       Lab5
     000000AB  G$ET1$0$0                          Lab5
     000000AB  _ADC1CF                            Lab5
     000000AB  _ET1                               Lab5
     000000AC  G$AMX1SL$0$0                       Lab5
     000000AC  G$ES$0$0                           Lab5
     000000AC  G$ES0$0$0                          Lab5
     000000AC  _AMX1SL                            Lab5
     000000AC  _ES                                Lab5
     000000AC  _ES0                               Lab5
     000000AD  G$ET2$0$0                          Lab5
     000000AD  G$P3IF$0$0                         Lab5
     000000AD  _ET2                               Lab5
     000000AD  _P3IF                              Lab5
     000000AE  G$SADEN1$0$0                       Lab5
     000000AE  _SADEN1                            Lab5
     000000AF  G$EA$0$0                           Lab5
     000000AF  G$EMI0CN$0$0                       Lab5
     000000AF  G$_XPAGE$0$0                       Lab5
     000000AF  _EA                                Lab5
     000000AF  _EMI0CN                            Lab5
     000000AF  __XPAGE                            Lab5
     000000B0  G$P3$0$0                           Lab5
     000000B0  G$P3_0$0$0                         Lab5
     000000B0  _P3                                Lab5
     000000B0  _P3_0                              Lab5
     000000B1  G$OSCXCN$0$0                       Lab5
     000000B1  G$P3_1$0$0                         Lab5
     000000B1  _OSCXCN                            Lab5
     000000B1  _P3_1                              Lab5
     000000B2  G$OSCICN$0$0                       Lab5
     000000B2  G$P3_2$0$0                         Lab5
     000000B2  _OSCICN                            Lab5
     000000B2  _P3_2                              Lab5
     000000B3  G$P3_3$0$0                         Lab5
     000000B3  G$SS$0$0                           Lab5
     000000B3  _P3_3                              Lab5
     000000B3  _SS                                Lab5
     000000B4  G$BUZZ$0$0                         Lab5
     000000B4  G$P3_4$0$0                         Lab5
     000000B4  _BUZZ                              Lab5
     000000B4  _P3_4                              Lab5
     000000B5  G$P3_5$0$0                         Lab5
     000000B5  G$P74OUT$0$0                       Lab5
     000000B5  _P3_5                              Lab5
     000000B5  _P74OUT                            Lab5
     000000B6  G$FLSCL$0$0                        Lab5
     000000B6  G$P3_6$0$0                         Lab5
     000000B6  _FLSCL                             Lab5
     000000B6  _P3_6                              Lab5
     000000B7  G$FLACL$0$0                        Lab5
ASxxxx Linker V03.00 + NoICE + sdld,  page 8.
Hexadecimal  [32-Bits]

Area                                    Addr        Size        Decimal Bytes (Attributes)
--------------------------------        ----        ----        ------- ----- ------------
.  .ABS.                            00000000    00000000 =           0. bytes (ABS,CON)

      Value  Global                              Global Defined In Module
      -----  --------------------------------   ------------------------
     000000B7  G$P3_7$0$0                         Lab5
     000000B7  _FLACL                             Lab5
     000000B7  _P3_7                              Lab5
     000000B8  G$IP$0$0                           Lab5
     000000B8  G$PX0$0$0                          Lab5
     000000B8  _IP                                Lab5
     000000B8  _PX0                               Lab5
     000000B9  G$PT0$0$0                          Lab5
     000000B9  G$SADEN0$0$0                       Lab5
     000000B9  _PT0                               Lab5
     000000B9  _SADEN0                            Lab5
     000000BA  G$AMX0CF$0$0                       Lab5
     000000BA  G$PX1$0$0                          Lab5
     000000BA  _AMX0CF                            Lab5
     000000BA  _PX1                               Lab5
     000000BB  G$AMX0SL$0$0                       Lab5
     000000BB  G$PT1$0$0                          Lab5
     000000BB  _AMX0SL                            Lab5
     000000BB  _PT1                               Lab5
     000000BC  G$ADC0CF$0$0                       Lab5
     000000BC  G$PS$0$0                           Lab5
     000000BC  G$PS0$0$0                          Lab5
     000000BC  _ADC0CF                            Lab5
     000000BC  _PS                                Lab5
     000000BC  _PS0                               Lab5
     000000BD  G$P1MDIN$0$0                       Lab5
     000000BD  G$PT2$0$0                          Lab5
     000000BD  _P1MDIN                            Lab5
     000000BD  _PT2                               Lab5
     000000BE  G$ADC0L$0$0                        Lab5
     000000BE  _ADC0L                             Lab5
     000000BF  G$ADC0H$0$0                        Lab5
     000000BF  _ADC0H                             Lab5
     000000C0  G$BUS_TOE$0$0                      Lab5
     000000C0  G$SMB0CN$0$0                       Lab5
     000000C0  G$SMBTOE$0$0                       Lab5
     000000C0  _BUS_TOE                           Lab5
     000000C0  _SMB0CN                            Lab5
     000000C0  _SMBTOE                            Lab5
     000000C1  G$BUS_FTE$0$0                      Lab5
     000000C1  G$SMB0STA$0$0                      Lab5
     000000C1  G$SMBFTE$0$0                       Lab5
     000000C1  _BUS_FTE                           Lab5
     000000C1  _SMB0STA                           Lab5
     000000C1  _SMBFTE                            Lab5
     000000C2  G$AA$0$0                           Lab5
     000000C2  G$BUS_AA$0$0                       Lab5
     000000C2  G$SMB0DAT$0$0                      Lab5
     000000C2  _AA                                Lab5
     000000C2  _BUS_AA                            Lab5
     000000C2  _SMB0DAT                           Lab5
ASxxxx Linker V03.00 + NoICE + sdld,  page 9.
Hexadecimal  [32-Bits]

Area                                    Addr        Size        Decimal Bytes (Attributes)
--------------------------------        ----        ----        ------- ----- ------------
.  .ABS.                            00000000    00000000 =           0. bytes (ABS,CON)

      Value  Global                              Global Defined In Module
      -----  --------------------------------   ------------------------
     000000C3  G$BUS_INT$0$0                      Lab5
     000000C3  G$SI$0$0                           Lab5
     000000C3  G$SMB0ADR$0$0                      Lab5
     000000C3  _BUS_INT                           Lab5
     000000C3  _SI                                Lab5
     000000C3  _SMB0ADR                           Lab5
     000000C4  G$ADC0GTL$0$0                      Lab5
     000000C4  G$BUS_STOP$0$0                     Lab5
     000000C4  G$STO$0$0                          Lab5
     000000C4  _ADC0GTL                           Lab5
     000000C4  _BUS_STOP                          Lab5
     000000C4  _STO                               Lab5
     000000C5  G$ADC0GTH$0$0                      Lab5
     000000C5  G$BUS_START$0$0                    Lab5
     000000C5  G$STA$0$0                          Lab5
     000000C5  _ADC0GTH                           Lab5
     000000C5  _BUS_START                         Lab5
     000000C5  _STA                               Lab5
     000000C6  G$ADC0LTL$0$0                      Lab5
     000000C6  G$BUS_EN$0$0                       Lab5
     000000C6  G$ENSMB$0$0                        Lab5
     000000C6  _ADC0LTL                           Lab5
     000000C6  _BUS_EN                            Lab5
     000000C6  _ENSMB                             Lab5
     000000C7  G$ADC0LTH$0$0                      Lab5
     000000C7  G$BUSY$0$0                         Lab5
     000000C7  G$BUS_BUSY$0$0                     Lab5
     000000C7  _ADC0LTH                           Lab5
     000000C7  _BUSY                              Lab5
     000000C7  _BUS_BUSY                          Lab5
     000000C8  G$CPRL2$0$0                        Lab5
     000000C8  G$T2CON$0$0                        Lab5
     000000C8  _CPRL2                             Lab5
     000000C8  _T2CON                             Lab5
     000000C9  G$CT2$0$0                          Lab5
     000000C9  G$T4CON$0$0                        Lab5
     000000C9  _CT2                               Lab5
     000000C9  _T4CON                             Lab5
     000000CA  G$RCAP2L$0$0                       Lab5
     000000CA  G$TR2$0$0                          Lab5
     000000CA  _RCAP2L                            Lab5
     000000CA  _TR2                               Lab5
     000000CB  G$EXEN2$0$0                        Lab5
     000000CB  G$RCAP2H$0$0                       Lab5
     000000CB  _EXEN2                             Lab5
     000000CB  _RCAP2H                            Lab5
     000000CC  G$TCLK$0$0                         Lab5
     000000CC  G$TL2$0$0                          Lab5
     000000CC  _TCLK                              Lab5
     000000CC  _TL2                               Lab5
     000000CD  G$RCLK$0$0                         Lab5
ASxxxx Linker V03.00 + NoICE + sdld,  page 10.
Hexadecimal  [32-Bits]

Area                                    Addr        Size        Decimal Bytes (Attributes)
--------------------------------        ----        ----        ------- ----- ------------
.  .ABS.                            00000000    00000000 =           0. bytes (ABS,CON)

      Value  Global                              Global Defined In Module
      -----  --------------------------------   ------------------------
     000000CD  G$TH2$0$0                          Lab5
     000000CD  _RCLK                              Lab5
     000000CD  _TH2                               Lab5
     000000CE  G$EXF2$0$0                         Lab5
     000000CE  _EXF2                              Lab5
     000000CF  G$SMB0CR$0$0                       Lab5
     000000CF  G$TF2$0$0                          Lab5
     000000CF  _SMB0CR                            Lab5
     000000CF  _TF2                               Lab5
     000000D0  G$P$0$0                            Lab5
     000000D0  G$PSW$0$0                          Lab5
     000000D0  _P                                 Lab5
     000000D0  _PSW                               Lab5
     000000D1  G$F1$0$0                           Lab5
     000000D1  G$REF0CN$0$0                       Lab5
     000000D1  _F1                                Lab5
     000000D1  _REF0CN                            Lab5
     000000D2  G$DAC0L$0$0                        Lab5
     000000D2  G$OV$0$0                           Lab5
     000000D2  _DAC0L                             Lab5
     000000D2  _OV                                Lab5
     000000D3  G$DAC0H$0$0                        Lab5
     000000D3  G$RS0$0$0                          Lab5
     000000D3  _DAC0H                             Lab5
     000000D3  _RS0                               Lab5
     000000D4  G$DAC0CN$0$0                       Lab5
     000000D4  G$RS1$0$0                          Lab5
     000000D4  _DAC0CN                            Lab5
     000000D4  _RS1                               Lab5
     000000D5  G$DAC1L$0$0                        Lab5
     000000D5  G$F0$0$0                           Lab5
     000000D5  _DAC1L                             Lab5
     000000D5  _F0                                Lab5
     000000D6  G$AC$0$0                           Lab5
     000000D6  G$DAC1H$0$0                        Lab5
     000000D6  _AC                                Lab5
     000000D6  _DAC1H                             Lab5
     000000D7  G$CY$0$0                           Lab5
     000000D7  G$DAC1CN$0$0                       Lab5
     000000D7  _CY                                Lab5
     000000D7  _DAC1CN                            Lab5
     000000D8  G$CCF0$0$0                         Lab5
     000000D8  G$PCA0CN$0$0                       Lab5
     000000D8  _CCF0                              Lab5
     000000D8  _PCA0CN                            Lab5
     000000D9  G$CCF1$0$0                         Lab5
     000000D9  G$PCA0MD$0$0                       Lab5
     000000D9  _CCF1                              Lab5
     000000D9  _PCA0MD                            Lab5
     000000DA  G$CCF2$0$0                         Lab5
     000000DA  G$PCA0CPM0$0$0                     Lab5
ASxxxx Linker V03.00 + NoICE + sdld,  page 11.
Hexadecimal  [32-Bits]

Area                                    Addr        Size        Decimal Bytes (Attributes)
--------------------------------        ----        ----        ------- ----- ------------
.  .ABS.                            00000000    00000000 =           0. bytes (ABS,CON)

      Value  Global                              Global Defined In Module
      -----  --------------------------------   ------------------------
     000000DA  _CCF2                              Lab5
     000000DA  _PCA0CPM0                          Lab5
     000000DB  G$CCF3$0$0                         Lab5
     000000DB  G$PCA0CPM1$0$0                     Lab5
     000000DB  _CCF3                              Lab5
     000000DB  _PCA0CPM1                          Lab5
     000000DC  G$CCF4$0$0                         Lab5
     000000DC  G$PCA0CPM2$0$0                     Lab5
     000000DC  _CCF4                              Lab5
     000000DC  _PCA0CPM2                          Lab5
     000000DD  G$PCA0CPM3$0$0                     Lab5
     000000DD  _PCA0CPM3                          Lab5
     000000DE  G$CR$0$0                           Lab5
     000000DE  G$PCA0CPM4$0$0                     Lab5
     000000DE  _CR                                Lab5
     000000DE  _PCA0CPM4                          Lab5
     000000DF  G$CF$0$0                           Lab5
     000000DF  _CF                                Lab5
     000000E0  G$ACC$0$0                          Lab5
     000000E0  _ACC                               Lab5
     000000E1  G$XBR0$0$0                         Lab5
     000000E1  _XBR0                              Lab5
     000000E2  G$XBR1$0$0                         Lab5
     000000E2  _XBR1                              Lab5
     000000E3  G$XBR2$0$0                         Lab5
     000000E3  _XBR2                              Lab5
     000000E4  G$RCAP4L$0$0                       Lab5
     000000E4  _RCAP4L                            Lab5
     000000E5  G$RCAP4H$0$0                       Lab5
     000000E5  _RCAP4H                            Lab5
     000000E6  G$EIE1$0$0                         Lab5
     000000E6  _EIE1                              Lab5
     000000E7  G$EIE2$0$0                         Lab5
     000000E7  _EIE2                              Lab5
     000000E8  G$AD0LJST$0$0                      Lab5
     000000E8  G$ADC0CN$0$0                       Lab5
     000000E8  G$ADLJST$0$0                       Lab5
     000000E8  _AD0LJST                           Lab5
     000000E8  _ADC0CN                            Lab5
     000000E8  _ADLJST                            Lab5
     000000E9  G$AD0WINT$0$0                      Lab5
     000000E9  G$ADWINT$0$0                       Lab5
     000000E9  G$PCA0L$0$0                        Lab5
     000000E9  _AD0WINT                           Lab5
     000000E9  _ADWINT                            Lab5
     000000E9  _PCA0L                             Lab5
     000000EA  G$AD0CM0$0$0                       Lab5
     000000EA  G$ADSTM0$0$0                       Lab5
     000000EA  G$PCA0CPL0$0$0                     Lab5
     000000EA  _AD0CM0                            Lab5
     000000EA  _ADSTM0                            Lab5
ASxxxx Linker V03.00 + NoICE + sdld,  page 12.
Hexadecimal  [32-Bits]

Area                                    Addr        Size        Decimal Bytes (Attributes)
--------------------------------        ----        ----        ------- ----- ------------
.  .ABS.                            00000000    00000000 =           0. bytes (ABS,CON)

      Value  Global                              Global Defined In Module
      -----  --------------------------------   ------------------------
     000000EA  _PCA0CPL0                          Lab5
     000000EB  G$AD0CM1$0$0                       Lab5
     000000EB  G$ADSTM1$0$0                       Lab5
     000000EB  G$PCA0CPL1$0$0                     Lab5
     000000EB  _AD0CM1                            Lab5
     000000EB  _ADSTM1                            Lab5
     000000EB  _PCA0CPL1                          Lab5
     000000EC  G$AD0BUSY$0$0                      Lab5
     000000EC  G$ADBUSY$0$0                       Lab5
     000000EC  G$PCA0CPL2$0$0                     Lab5
     000000EC  _AD0BUSY                           Lab5
     000000EC  _ADBUSY                            Lab5
     000000EC  _PCA0CPL2                          Lab5
     000000ED  G$AD0INT$0$0                       Lab5
     000000ED  G$ADCINT$0$0                       Lab5
     000000ED  G$PCA0CPL3$0$0                     Lab5
     000000ED  _AD0INT                            Lab5
     000000ED  _ADCINT                            Lab5
     000000ED  _PCA0CPL3                          Lab5
     000000EE  G$AD0TM$0$0                        Lab5
     000000EE  G$ADCTM$0$0                        Lab5
     000000EE  G$PCA0CPL4$0$0                     Lab5
     000000EE  _AD0TM                             Lab5
     000000EE  _ADCTM                             Lab5
     000000EE  _PCA0CPL4                          Lab5
     000000EF  G$AD0EN$0$0                        Lab5
     000000EF  G$ADCEN$0$0                        Lab5
     000000EF  G$RSTSRC$0$0                       Lab5
     000000EF  _AD0EN                             Lab5
     000000EF  _ADCEN                             Lab5
     000000EF  _RSTSRC                            Lab5
     000000F0  G$B$0$0                            Lab5
     000000F0  _B                                 Lab5
     000000F1  G$SCON1$0$0                        Lab5
     000000F1  _SCON1                             Lab5
     000000F2  G$SBUF1$0$0                        Lab5
     000000F2  _SBUF1                             Lab5
     000000F3  G$SADDR1$0$0                       Lab5
     000000F3  _SADDR1                            Lab5
     000000F4  G$TL4$0$0                          Lab5
     000000F4  _TL4                               Lab5
     000000F5  G$TH4$0$0                          Lab5
     000000F5  _B_5                               _gptrget
     000000F5  _TH4                               Lab5
     000000F6  G$EIP1$0$0                         Lab5
     000000F6  _B_6                               _gptrget
     000000F6  _EIP1                              Lab5
     000000F7  G$EIP2$0$0                         Lab5
     000000F7  _B_7                               _gptrget
     000000F7  _EIP2                              Lab5
     000000F8  G$SPI0CN$0$0                       Lab5
ASxxxx Linker V03.00 + NoICE + sdld,  page 13.
Hexadecimal  [32-Bits]

Area                                    Addr        Size        Decimal Bytes (Attributes)
--------------------------------        ----        ----        ------- ----- ------------
.  .ABS.                            00000000    00000000 =           0. bytes (ABS,CON)

      Value  Global                              Global Defined In Module
      -----  --------------------------------   ------------------------
     000000F8  G$SPIEN$0$0                        Lab5
     000000F8  _SPI0CN                            Lab5
     000000F8  _SPIEN                             Lab5
     000000F9  G$MSTEN$0$0                        Lab5
     000000F9  G$PCA0H$0$0                        Lab5
     000000F9  _MSTEN                             Lab5
     000000F9  _PCA0H                             Lab5
     000000FA  G$PCA0CPH0$0$0                     Lab5
     000000FA  G$SLVSEL$0$0                       Lab5
     000000FA  _PCA0CPH0                          Lab5
     000000FA  _SLVSEL                            Lab5
     000000FB  G$PCA0CPH1$0$0                     Lab5
     000000FB  G$TXBSY$0$0                        Lab5
     000000FB  _PCA0CPH1                          Lab5
     000000FB  _TXBSY                             Lab5
     000000FC  G$PCA0CPH2$0$0                     Lab5
     000000FC  G$RXOVRN$0$0                       Lab5
     000000FC  _PCA0CPH2                          Lab5
     000000FC  _RXOVRN                            Lab5
     000000FD  G$MODF$0$0                         Lab5
     000000FD  G$PCA0CPH3$0$0                     Lab5
     000000FD  _MODF                              Lab5
     000000FD  _PCA0CPH3                          Lab5
     000000FE  G$PCA0CPH4$0$0                     Lab5
     000000FE  G$WCOL$0$0                         Lab5
     000000FE  _PCA0CPH4                          Lab5
     000000FE  _WCOL                              Lab5
     000000FF  G$SPIF$0$0                         Lab5
     000000FF  G$WDTCN$0$0                        Lab5
     000000FF  _SPIF                              Lab5
     000000FF  _WDTCN                             Lab5
     00008C8A  G$TMR0$0$0                         Lab5
     00008C8A  _TMR0                              Lab5
     00008D8B  G$TMR1$0$0                         Lab5
     00008D8B  _TMR1                              Lab5
     00009392  G$TMR3RL$0$0                       Lab5
     00009392  _TMR3RL                            Lab5
     00009594  G$TMR3$0$0                         Lab5
     00009594  _TMR3                              Lab5
     0000BFBE  G$ADC0$0$0                         Lab5
     0000BFBE  _ADC0                              Lab5
     0000C5C4  G$ADC0GT$0$0                       Lab5
     0000C5C4  _ADC0GT                            Lab5
     0000C7C6  G$ADC0LT$0$0                       Lab5
     0000C7C6  _ADC0LT                            Lab5
     0000CBCA  G$RCAP2$0$0                        Lab5
     0000CBCA  _RCAP2                             Lab5
     0000CDCC  G$TMR2$0$0                         Lab5
     0000CDCC  _TMR2                              Lab5
     0000D3D2  G$DAC0$0$0                         Lab5
     0000D3D2  _DAC0                              Lab5
ASxxxx Linker V03.00 + NoICE + sdld,  page 14.
Hexadecimal  [32-Bits]

Area                                    Addr        Size        Decimal Bytes (Attributes)
--------------------------------        ----        ----        ------- ----- ------------
.  .ABS.                            00000000    00000000 =           0. bytes (ABS,CON)

      Value  Global                              Global Defined In Module
      -----  --------------------------------   ------------------------
     0000D6D5  G$DAC1$0$0                         Lab5
     0000D6D5  _DAC1                              Lab5
     0000E5E4  G$RCAP4$0$0                        Lab5
     0000E5E4  _RCAP4                             Lab5
     0000F5F4  G$TMR4$0$0                         Lab5
     0000F5F4  _TMR4                              Lab5
     0000F9E9  G$PCA0$0$0                         Lab5
     0000F9E9  _PCA0                              Lab5
     0000FAEA  G$PCA0CP0$0$0                      Lab5
     0000FAEA  _PCA0CP0                           Lab5
     0000FBEB  G$PCA0CP1$0$0                      Lab5
     0000FBEB  _PCA0CP1                           Lab5
     0000FCEC  G$PCA0CP2$0$0                      Lab5
     0000FCEC  _PCA0CP2                           Lab5
     0000FDED  G$PCA0CP3$0$0                      Lab5
     0000FDED  _PCA0CP3                           Lab5
     0000FEEE  G$PCA0CP4$0$0                      Lab5
     0000FEEE  _PCA0CP4                           Lab5

ASxxxx Linker V03.00 + NoICE + sdld,  page 15.
Hexadecimal  [32-Bits]

Area                                    Addr        Size        Decimal Bytes (Attributes)
--------------------------------        ----        ----        ------- ----- ------------
BSEG_BYTES                          00000020    00000002 =           2. bytes (REL,CON)

      Value  Global                              Global Defined In Module
      -----  --------------------------------   ------------------------
ASxxxx Linker V03.00 + NoICE + sdld,  page 16.
Hexadecimal  [32-Bits]

Area                                    Addr        Size        Decimal Bytes (Attributes)
--------------------------------        ----        ----        ------- ----- ------------
REG_BANK_0                          00000000    00000008 =           8. bytes (REL,OVR)

      Value  Global                              Global Defined In Module
      -----  --------------------------------   ------------------------
ASxxxx Linker V03.00 + NoICE + sdld,  page 17.
Hexadecimal  [32-Bits]

Area                                    Addr        Size        Decimal Bytes (Attributes)
--------------------------------        ----        ----        ------- ----- ------------
DSEG                                00000000    0000007D =         125. bytes (REL,CON)

      Value  Global                              Global Defined In Module
      -----  --------------------------------   ------------------------
     00000008  _vsprintf_PARM_2                   sprintf
     0000000B  _vsprintf_PARM_3                   sprintf
     0000000F  _bp                                _bp
     00000010  _vprintf_PARM_2                    vprintf
     00000022  G$Data2$0$0                        Lab5
     00000022  _Data2                             Lab5
     00000025  LLab5.aligned_alloc$size$1$39      Lab5
     00000025  _aligned_alloc_PARM_2              Lab5
     00000027  LLab5.lcd_clear$NumBytes$1$85      Lab5
     00000028  LLab5.lcd_clear$Cmd$1$85           Lab5
     0000002A  LLab5.read_keypad$Data$1$86        Lab5
     0000002C  LLab5.i2c_write_data$start_reg$1   Lab5
     0000002C  _i2c_write_data_PARM_2             Lab5
     0000002D  LLab5.i2c_write_data$buffer$1$10   Lab5
     0000002D  _i2c_write_data_PARM_3             Lab5
     00000030  LLab5.i2c_write_data$num_bytes$1   Lab5
     00000030  _i2c_write_data_PARM_4             Lab5
     00000031  LLab5.i2c_read_data$start_reg$1$   Lab5
     00000031  _i2c_read_data_PARM_2              Lab5
     00000032  LLab5.i2c_read_data$buffer$1$107   Lab5
     00000032  _i2c_read_data_PARM_3              Lab5
     00000035  LLab5.i2c_read_data$num_bytes$1$   Lab5
     00000035  _i2c_read_data_PARM_4              Lab5
     00000036  G$acount$0$0                       Lab5
     00000036  _acount                            Lab5
     00000037  G$pcount$0$0                       Lab5
     00000037  _pcount                            Lab5
     00000038  G$bcount$0$0                       Lab5
     00000038  _bcount                            Lab5
     00000039  G$moving$0$0                       Lab5
     00000039  _moving                            Lab5
     0000003A  G$print_count$0$0                  Lab5
     0000003A  _print_count                       Lab5
     0000003C  G$input$0$0                        Lab5
     0000003C  _input                             Lab5
     0000003D  G$Data$0$0                         Lab5
     0000003D  _Data                              Lab5
     00000041  G$adc$0$0                          Lab5
     00000041  _adc                               Lab5
     00000042  G$SERVO_PW$0$0                     Lab5
     00000042  _SERVO_PW                          Lab5
     00000044  G$kx$0$0                           Lab5
     00000044  _kx                                Lab5
     00000045  G$ky$0$0                           Lab5
     00000045  _ky                                Lab5
     00000046  G$maxslope$0$0                     Lab5
     00000046  _maxslope                          Lab5
     00000048  G$gx$0$0                           Lab5
     00000048  _gx                                Lab5
     0000004A  G$gy$0$0                           Lab5
ASxxxx Linker V03.00 + NoICE + sdld,  page 18.
Hexadecimal  [32-Bits]

Area                                    Addr        Size        Decimal Bytes (Attributes)
--------------------------------        ----        ----        ------- ----- ------------
DSEG                                00000000    0000007D =         125. bytes (REL,CON)

      Value  Global                              Global Defined In Module
      -----  --------------------------------   ------------------------
     0000004A  _gy                                Lab5
     0000004C  G$offsetx$0$0                      Lab5
     0000004C  _offsetx                           Lab5
     0000004E  G$offsety$0$0                      Lab5
     0000004E  _offsety                           Lab5
     00000050  G$ksteering$0$0                    Lab5
     00000050  _ksteering                         Lab5
     00000054  G$newReading$0$0                   Lab5
     00000054  _newReading                        Lab5
     00000055  G$buzzOn$0$0                       Lab5
     00000055  _buzzOn                            Lab5
     00000056  G$DRIVE_PW$0$0                     Lab5
     00000056  _DRIVE_PW                          Lab5
     00000058  LLab5.calibrateAccel$avg_gy$1$15   Lab5
     0000005A  LLab5.read_accels$avg_gx$1$156     Lab5
     0000005C  LLab5.read_accels$avg_gy$1$156     Lab5
     0000005E  LLab5.read_accels$sloc0$1$0        Lab5
     0000006C  __print_format_PARM_2              printf_large
     0000006F  __print_format_PARM_3              printf_large
     00000072  __print_format_PARM_4              printf_large

ASxxxx Linker V03.00 + NoICE + sdld,  page 19.
Hexadecimal  [32-Bits]

Area                                    Addr        Size        Decimal Bytes (Attributes)
--------------------------------        ----        ----        ------- ----- ------------
OSEG                                00000011    00000006 =           6. bytes (REL,OVR)

      Value  Global                              Global Defined In Module
      -----  --------------------------------   ------------------------
     00000011  __divsint_PARM_2                   _divuint
     00000011  __divuint_PARM_2                   _divuint
     00000011  __gptrput_PARM_2                   _gptrput
     00000011  __mulint_PARM_2                    _mulint

ASxxxx Linker V03.00 + NoICE + sdld,  page 20.
Hexadecimal  [32-Bits]

Area                                    Addr        Size        Decimal Bytes (Attributes)
--------------------------------        ----        ----        ------- ----- ------------
ISEG                                00000017    00000006 =           6. bytes (REL,CON)

      Value  Global                              Global Defined In Module
      -----  --------------------------------   ------------------------
ASxxxx Linker V03.00 + NoICE + sdld,  page 21.
Hexadecimal  [32-Bits]

Area                                    Addr        Size        Decimal Bytes (Attributes)
--------------------------------        ----        ----        ------- ----- ------------
SSEG                                0000007A    00000086 =         134. bytes (REL,OVR)

      Value  Global                              Global Defined In Module
      -----  --------------------------------   ------------------------
     0000007A  __start__stack                     Lab5

ASxxxx Linker V03.00 + NoICE + sdld,  page 22.
Hexadecimal  [32-Bits]

Area                                    Addr        Size        Decimal Bytes (Attributes)
--------------------------------        ----        ----        ------- ----- ------------
XSEG                                00000001    00000050 =          80. bytes (REL,CON,XDATA)

      Value  Global                              Global Defined In Module
      -----  --------------------------------   ------------------------
D:   00000001  LLab5.lcd_print$text$1$81          Lab5

ASxxxx Linker V03.00 + NoICE + sdld,  page 23.
Hexadecimal  [32-Bits]

Area                                    Addr        Size        Decimal Bytes (Attributes)
--------------------------------        ----        ----        ------- ----- ------------
HOME                                00000000    00000051 =          81. bytes (REL,CON,CODE)

      Value  Global                              Global Defined In Module
      -----  --------------------------------   ------------------------
C:   00000000  A$Lab5$1125                        Lab5
C:   00000003  A$Lab5$1126                        Lab5
C:   0000000B  A$Lab5$1128                        Lab5
C:   00000013  A$Lab5$1130                        Lab5
C:   0000001B  A$Lab5$1132                        Lab5
C:   00000023  A$Lab5$1134                        Lab5
C:   0000002B  A$Lab5$1136                        Lab5
C:   00000033  A$Lab5$1138                        Lab5
C:   0000003B  A$Lab5$1140                        Lab5
C:   00000043  A$Lab5$1142                        Lab5
C:   0000004B  A$Lab5$1144                        Lab5
C:   0000004E  A$Lab5$1237                        Lab5
C:   0000004E  __sdcc_program_startup             Lab5

ASxxxx Linker V03.00 + NoICE + sdld,  page 24.
Hexadecimal  [32-Bits]

Area                                    Addr        Size        Decimal Bytes (Attributes)
--------------------------------        ----        ----        ------- ----- ------------
GSINIT0                             00000051    00000003 =           3. bytes (REL,CON,CODE)

      Value  Global                              Global Defined In Module
      -----  --------------------------------   ------------------------
C:   00000051  __sdcc_gsinit_startup              

ASxxxx Linker V03.00 + NoICE + sdld,  page 25.
Hexadecimal  [32-Bits]

Area                                    Addr        Size        Decimal Bytes (Attributes)
--------------------------------        ----        ----        ------- ----- ------------
GSINIT2                             00000054    0000000A =          10. bytes (REL,CON,CODE)

      Value  Global                              Global Defined In Module
      -----  --------------------------------   ------------------------
ASxxxx Linker V03.00 + NoICE + sdld,  page 26.
Hexadecimal  [32-Bits]

Area                                    Addr        Size        Decimal Bytes (Attributes)
--------------------------------        ----        ----        ------- ----- ------------
GSINIT3                             0000005E    00000022 =          34. bytes (REL,CON,CODE)

      Value  Global                              Global Defined In Module
      -----  --------------------------------   ------------------------
C:   0000005E  __mcs51_genXINIT                   

ASxxxx Linker V03.00 + NoICE + sdld,  page 27.
Hexadecimal  [32-Bits]

Area                                    Addr        Size        Decimal Bytes (Attributes)
--------------------------------        ----        ----        ------- ----- ------------
GSINIT4                             00000080    0000002A =          42. bytes (REL,CON,CODE)

      Value  Global                              Global Defined In Module
      -----  --------------------------------   ------------------------
C:   00000080  __mcs51_genRAMCLEAR                
C:   00000086  __mcs51_genXRAMCLEAR               

ASxxxx Linker V03.00 + NoICE + sdld,  page 28.
Hexadecimal  [32-Bits]

Area                                    Addr        Size        Decimal Bytes (Attributes)
--------------------------------        ----        ----        ------- ----- ------------
GSINIT                              000000AA    00000044 =          68. bytes (REL,CON,CODE)

      Value  Global                              Global Defined In Module
      -----  --------------------------------   ------------------------
C:   000000AA  A$Lab5$1160                        Lab5
C:   000000AA  C$Lab5.c$31$1$164                  Lab5
C:   000000AD  A$Lab5$1163                        Lab5
C:   000000AD  C$Lab5.c$32$1$164                  Lab5
C:   000000B0  A$Lab5$1166                        Lab5
C:   000000B0  C$Lab5.c$33$1$164                  Lab5
C:   000000B3  A$Lab5$1169                        Lab5
C:   000000B3  C$Lab5.c$34$1$164                  Lab5
C:   000000B6  A$Lab5$1172                        Lab5
C:   000000B6  C$Lab5.c$36$1$164                  Lab5
C:   000000B7  A$Lab5$1173                        Lab5
C:   000000B9  A$Lab5$1174                        Lab5
C:   000000BB  A$Lab5$1178                        Lab5
C:   000000BB  C$Lab5.c$39$1$164                  Lab5
C:   000000BD  A$Lab5$1181                        Lab5
C:   000000BD  C$Lab5.c$45$1$164                  Lab5
C:   000000C0  A$Lab5$1182                        Lab5
C:   000000C3  A$Lab5$1186                        Lab5
C:   000000C3  C$Lab5.c$46$1$164                  Lab5
C:   000000C5  A$Lab5$1190                        Lab5
C:   000000C5  C$Lab5.c$47$1$164                  Lab5
C:   000000C7  A$Lab5$1193                        Lab5
C:   000000C7  C$Lab5.c$48$1$164                  Lab5
C:   000000C9  A$Lab5$1194                        Lab5
C:   000000CB  A$Lab5$1197                        Lab5
C:   000000CB  C$Lab5.c$49$1$164                  Lab5
C:   000000CD  A$Lab5$1198                        Lab5
C:   000000CF  A$Lab5$1201                        Lab5
C:   000000CF  C$Lab5.c$50$1$164                  Lab5
C:   000000D1  A$Lab5$1202                        Lab5
C:   000000D3  A$Lab5$1205                        Lab5
C:   000000D3  C$Lab5.c$51$1$164                  Lab5
C:   000000D5  A$Lab5$1206                        Lab5
C:   000000D7  A$Lab5$1209                        Lab5
C:   000000D7  C$Lab5.c$52$1$164                  Lab5
C:   000000D9  A$Lab5$1210                        Lab5
C:   000000DB  A$Lab5$1213                        Lab5
C:   000000DB  C$Lab5.c$53$1$164                  Lab5
C:   000000DD  A$Lab5$1214                        Lab5
C:   000000DF  A$Lab5$1215                        Lab5
C:   000000E1  A$Lab5$1216                        Lab5
C:   000000E4  A$Lab5$1220                        Lab5
C:   000000E4  C$Lab5.c$54$1$164                  Lab5
C:   000000E6  A$Lab5$1224                        Lab5
C:   000000E6  C$Lab5.c$56$1$164                  Lab5
C:   000000E8  A$Lab5$1227                        Lab5
C:   000000E8  C$Lab5.c$62$1$164                  Lab5
C:   000000EB  A$Lab5$1228                        Lab5
ASxxxx Linker V03.00 + NoICE + sdld,  page 29.
Hexadecimal  [32-Bits]

Area                                    Addr        Size        Decimal Bytes (Attributes)
--------------------------------        ----        ----        ------- ----- ------------
GSFINAL                             000000EE    00000003 =           3. bytes (REL,CON,CODE)

      Value  Global                              Global Defined In Module
      -----  --------------------------------   ------------------------
C:   000000EE  A$Lab5$1230                        Lab5

ASxxxx Linker V03.00 + NoICE + sdld,  page 30.
Hexadecimal  [32-Bits]

Area                                    Addr        Size        Decimal Bytes (Attributes)
--------------------------------        ----        ----        ------- ----- ------------
CSEG                                000000F1    000018D4 =        6356. bytes (REL,CON,CODE)

      Value  Global                              Global Defined In Module
      -----  --------------------------------   ------------------------
C:   000000F1  A$Lab5$1265                        Lab5
C:   000000F1  C$c8051_SDCC.h$42$0$0              Lab5
C:   000000F1  C$c8051_SDCC.h$46$1$2              Lab5
C:   000000F1  G$SYSCLK_Init$0$0                  Lab5
C:   000000F1  _SYSCLK_Init                       Lab5
C:   000000F4  A$Lab5$1268                        Lab5
C:   000000F4  C$c8051_SDCC.h$49$1$2              Lab5
C:   000000F6  A$Lab5$1269                        Lab5
C:   000000F8  A$Lab5$1271                        Lab5
C:   000000F9  A$Lab5$1272                        Lab5
C:   000000FB  A$Lab5$1273                        Lab5
C:   000000FC  A$Lab5$1274                        Lab5
C:   000000FD  A$Lab5$1275                        Lab5
C:   000000FF  A$Lab5$1276                        Lab5
C:   00000100  A$Lab5$1277                        Lab5
C:   00000102  A$Lab5$1278                        Lab5
C:   00000104  A$Lab5$1279                        Lab5
C:   00000105  A$Lab5$1280                        Lab5
C:   00000106  A$Lab5$1281                        Lab5
C:   00000108  A$Lab5$1285                        Lab5
C:   00000108  C$c8051_SDCC.h$51$1$2              Lab5
C:   0000010A  A$Lab5$1286                        Lab5
C:   0000010D  A$Lab5$1289                        Lab5
C:   0000010D  C$c8051_SDCC.h$53$1$2              Lab5
C:   00000110  A$Lab5$1292                        Lab5
C:   00000110  C$c8051_SDCC.h$56$1$2              Lab5
C:   00000110  XG$SYSCLK_Init$0$0                 Lab5
C:   00000111  A$Lab5$1305                        Lab5
C:   00000111  C$c8051_SDCC.h$64$1$2              Lab5
C:   00000111  C$c8051_SDCC.h$66$1$4              Lab5
C:   00000111  G$UART0_Init$0$0                   Lab5
C:   00000111  _UART0_Init                        Lab5
C:   00000114  A$Lab5$1308                        Lab5
C:   00000114  C$c8051_SDCC.h$67$1$4              Lab5
C:   00000117  A$Lab5$1311                        Lab5
C:   00000117  C$c8051_SDCC.h$68$1$4              Lab5
C:   0000011A  A$Lab5$1314                        Lab5
C:   0000011A  C$c8051_SDCC.h$69$1$4              Lab5
C:   0000011C  A$Lab5$1317                        Lab5
C:   0000011C  C$c8051_SDCC.h$70$1$4              Lab5
C:   0000011F  A$Lab5$1320                        Lab5
C:   0000011F  C$c8051_SDCC.h$71$1$4              Lab5
C:   00000122  A$Lab5$1323                        Lab5
C:   00000122  C$c8051_SDCC.h$73$1$4              Lab5
C:   00000124  A$Lab5$1326                        Lab5
C:   00000124  C$c8051_SDCC.h$74$1$4              Lab5
C:   00000127  A$Lab5$1329                        Lab5
C:   00000127  C$c8051_SDCC.h$75$1$4              Lab5
C:   00000127  XG$UART0_Init$0$0                  Lab5
C:   00000128  A$Lab5$1342                        Lab5
ASxxxx Linker V03.00 + NoICE + sdld,  page 31.
Hexadecimal  [32-Bits]

Area                                    Addr        Size        Decimal Bytes (Attributes)
--------------------------------        ----        ----        ------- ----- ------------
CSEG                                000000F1    000018D4 =        6356. bytes (REL,CON,CODE)

      Value  Global                              Global Defined In Module
      -----  --------------------------------   ------------------------
C:   00000128  C$c8051_SDCC.h$83$1$4              Lab5
C:   00000128  C$c8051_SDCC.h$85$1$6              Lab5
C:   00000128  G$Sys_Init$0$0                     Lab5
C:   00000128  _Sys_Init                          Lab5
C:   0000012B  A$Lab5$1345                        Lab5
C:   0000012B  C$c8051_SDCC.h$86$1$6              Lab5
C:   0000012E  A$Lab5$1348                        Lab5
C:   0000012E  C$c8051_SDCC.h$88$1$6              Lab5
C:   00000131  A$Lab5$1351                        Lab5
C:   00000131  C$c8051_SDCC.h$89$1$6              Lab5
C:   00000134  A$Lab5$1354                        Lab5
C:   00000134  C$c8051_SDCC.h$91$1$6              Lab5
C:   00000137  A$Lab5$1357                        Lab5
C:   00000137  C$c8051_SDCC.h$92$1$6              Lab5
C:   0000013A  A$Lab5$1360                        Lab5
C:   0000013A  C$c8051_SDCC.h$93$1$6              Lab5
C:   0000013A  XG$Sys_Init$0$0                    Lab5
C:   0000013B  A$Lab5$1373                        Lab5
C:   0000013B  C$c8051_SDCC.h$98$1$6              Lab5
C:   0000013B  G$putchar$0$0                      Lab5
C:   0000013B  _putchar                           Lab5
C:   0000013D  A$Lab5$1379                        Lab5
C:   0000013D  C$c8051_SDCC.h$100$1$8             Lab5
C:   0000013D  C$c8051_SDCC.h$101$1$8             Lab5
C:   00000140  A$Lab5$1380                        Lab5
C:   00000142  A$Lab5$1384                        Lab5
C:   00000142  C$c8051_SDCC.h$102$1$8             Lab5
C:   00000144  A$Lab5$1387                        Lab5
C:   00000144  C$c8051_SDCC.h$103$1$8             Lab5
C:   00000144  XG$putchar$0$0                     Lab5
C:   00000145  A$Lab5$1405                        Lab5
C:   00000145  C$c8051_SDCC.h$108$1$8             Lab5
C:   00000145  C$c8051_SDCC.h$111$1$10            Lab5
C:   00000145  C$c8051_SDCC.h$112$1$10            Lab5
C:   00000145  G$getchar$0$0                      Lab5
C:   00000145  _getchar                           Lab5
C:   00000148  A$Lab5$1406                        Lab5
C:   0000014A  A$Lab5$1410                        Lab5
C:   0000014A  C$c8051_SDCC.h$113$1$10            Lab5
C:   0000014D  A$Lab5$1413                        Lab5
C:   0000014D  C$c8051_SDCC.h$114$1$10            Lab5
C:   00000150  A$Lab5$1416                        Lab5
C:   00000150  C$c8051_SDCC.h$115$1$10            Lab5
C:   00000153  A$Lab5$1419                        Lab5
C:   00000153  C$c8051_SDCC.h$116$1$10            Lab5
C:   00000153  XG$getchar$0$0                     Lab5
C:   00000154  A$Lab5$1434                        Lab5
C:   00000154  C$c8051_SDCC.h$121$1$10            Lab5
C:   00000154  C$c8051_SDCC.h$124$1$12            Lab5
C:   00000154  G$getchar_nw$0$0                   Lab5
C:   00000154  _getchar_nw                        Lab5
ASxxxx Linker V03.00 + NoICE + sdld,  page 32.
Hexadecimal  [32-Bits]

Area                                    Addr        Size        Decimal Bytes (Attributes)
--------------------------------        ----        ----        ------- ----- ------------
CSEG                                000000F1    000018D4 =        6356. bytes (REL,CON,CODE)

      Value  Global                              Global Defined In Module
      -----  --------------------------------   ------------------------
C:   00000157  A$Lab5$1435                        Lab5
C:   0000015A  A$Lab5$1436                        Lab5
C:   0000015C  A$Lab5$1440                        Lab5
C:   0000015C  C$c8051_SDCC.h$127$2$13            Lab5
C:   0000015E  A$Lab5$1443                        Lab5
C:   0000015E  C$c8051_SDCC.h$128$2$13            Lab5
C:   00000161  A$Lab5$1446                        Lab5
C:   00000161  C$c8051_SDCC.h$129$2$13            Lab5
C:   00000164  A$Lab5$1449                        Lab5
C:   00000164  C$c8051_SDCC.h$130$2$13            Lab5
C:   00000167  A$Lab5$1453                        Lab5
C:   00000167  C$c8051_SDCC.h$132$1$12            Lab5
C:   00000167  XG$getchar_nw$0$0                  Lab5
C:   00000168  A$Lab5$1470                        Lab5
C:   00000168  C$i2c.h$84$1$12                    Lab5
C:   00000168  G$lcd_print$0$0                    Lab5
C:   00000168  _lcd_print                         Lab5
C:   0000016A  A$Lab5$1471                        Lab5
C:   0000016D  A$Lab5$1474                        Lab5
C:   0000016D  C$i2c.h$90$1$81                    Lab5
C:   0000016F  A$Lab5$1475                        Lab5
C:   00000171  A$Lab5$1476                        Lab5
C:   00000172  A$Lab5$1477                        Lab5
C:   00000174  A$Lab5$1478                        Lab5
C:   00000175  A$Lab5$1479                        Lab5
C:   00000177  A$Lab5$1480                        Lab5
C:   00000178  A$Lab5$1481                        Lab5
C:   0000017A  A$Lab5$1482                        Lab5
C:   0000017D  A$Lab5$1483                        Lab5
C:   0000017F  A$Lab5$1484                        Lab5
C:   00000182  A$Lab5$1485                        Lab5
C:   00000184  A$Lab5$1486                        Lab5
C:   00000186  A$Lab5$1487                        Lab5
C:   00000188  A$Lab5$1491                        Lab5
C:   00000188  C$i2c.h$92$2$82                    Lab5
C:   0000018A  A$Lab5$1492                        Lab5
C:   0000018C  A$Lab5$1493                        Lab5
C:   0000018D  A$Lab5$1494                        Lab5
C:   0000018F  A$Lab5$1497                        Lab5
C:   0000018F  C$i2c.h$93$1$81                    Lab5
C:   00000191  A$Lab5$1498                        Lab5
C:   00000193  A$Lab5$1499                        Lab5
C:   00000194  A$Lab5$1500                        Lab5
C:   00000196  A$Lab5$1501                        Lab5
C:   00000197  A$Lab5$1502                        Lab5
C:   00000199  A$Lab5$1503                        Lab5
C:   0000019A  A$Lab5$1504                        Lab5
C:   0000019C  A$Lab5$1505                        Lab5
C:   0000019F  A$Lab5$1506                        Lab5
C:   000001A2  A$Lab5$1507                        Lab5
C:   000001A5  A$Lab5$1510                        Lab5
ASxxxx Linker V03.00 + NoICE + sdld,  page 33.
Hexadecimal  [32-Bits]

Area                                    Addr        Size        Decimal Bytes (Attributes)
--------------------------------        ----        ----        ------- ----- ------------
CSEG                                000000F1    000018D4 =        6356. bytes (REL,CON,CODE)

      Value  Global                              Global Defined In Module
      -----  --------------------------------   ------------------------
C:   000001A5  C$i2c.h$96$1$81                    Lab5
C:   000001A8  A$Lab5$1511                        Lab5
C:   000001AB  A$Lab5$1512                        Lab5
C:   000001AE  A$Lab5$1513                        Lab5
C:   000001B0  A$Lab5$1516                        Lab5
C:   000001B2  A$Lab5$1518                        Lab5
C:   000001B3  A$Lab5$1519                        Lab5
C:   000001B4  A$Lab5$1520                        Lab5
C:   000001B5  A$Lab5$1521                        Lab5
C:   000001B7  A$Lab5$1524                        Lab5
C:   000001B7  C$i2c.h$99$2$84                    Lab5
C:   000001B8  A$Lab5$1525                        Lab5
C:   000001BA  A$Lab5$1526                        Lab5
C:   000001BC  A$Lab5$1527                        Lab5
C:   000001BD  A$Lab5$1528                        Lab5
C:   000001BF  A$Lab5$1529                        Lab5
C:   000001C1  A$Lab5$1530                        Lab5
C:   000001C2  A$Lab5$1531                        Lab5
C:   000001C3  A$Lab5$1532                        Lab5
C:   000001C6  A$Lab5$1533                        Lab5
C:   000001C7  A$Lab5$1534                        Lab5
C:   000001C9  A$Lab5$1535                        Lab5
C:   000001CB  A$Lab5$1536                        Lab5
C:   000001CC  A$Lab5$1537                        Lab5
C:   000001CE  A$Lab5$1538                        Lab5
C:   000001D0  A$Lab5$1539                        Lab5
C:   000001D2  A$Lab5$1540                        Lab5
C:   000001D3  A$Lab5$1544                        Lab5
C:   000001D3  C$i2c.h$97$1$81                    Lab5
C:   000001D4  A$Lab5$1545                        Lab5
C:   000001D6  A$Lab5$1549                        Lab5
C:   000001D6  C$i2c.h$102$1$81                   Lab5
C:   000001D9  A$Lab5$1550                        Lab5
C:   000001DC  A$Lab5$1551                        Lab5
C:   000001DF  A$Lab5$1552                        Lab5
C:   000001E2  A$Lab5$1553                        Lab5
C:   000001E4  A$Lab5$1554                        Lab5
C:   000001E7  A$Lab5$1555                        Lab5
C:   000001EA  A$Lab5$1557                        Lab5
C:   000001EC  A$Lab5$1560                        Lab5
C:   000001EC  C$i2c.h$103$1$81                   Lab5
C:   000001EC  XG$lcd_print$0$0                   Lab5
C:   000001ED  A$Lab5$1576                        Lab5
C:   000001ED  C$i2c.h$106$1$81                   Lab5
C:   000001ED  C$i2c.h$108$1$81                   Lab5
C:   000001ED  G$lcd_clear$0$0                    Lab5
C:   000001ED  _lcd_clear                         Lab5
C:   000001F0  A$Lab5$1580                        Lab5
C:   000001F0  C$i2c.h$110$1$85                   Lab5
C:   000001F2  A$Lab5$1581                        Lab5
C:   000001F4  A$Lab5$1582                        Lab5
ASxxxx Linker V03.00 + NoICE + sdld,  page 34.
Hexadecimal  [32-Bits]

Area                                    Addr        Size        Decimal Bytes (Attributes)
--------------------------------        ----        ----        ------- ----- ------------
CSEG                                000000F1    000018D4 =        6356. bytes (REL,CON,CODE)

      Value  Global                              Global Defined In Module
      -----  --------------------------------   ------------------------
C:   000001F6  A$Lab5$1583                        Lab5
C:   000001F9  A$Lab5$1584                        Lab5
C:   000001FC  A$Lab5$1585                        Lab5
C:   000001FF  A$Lab5$1586                        Lab5
C:   00000202  A$Lab5$1587                        Lab5
C:   00000205  A$Lab5$1588                        Lab5
C:   00000208  A$Lab5$1589                        Lab5
C:   0000020B  A$Lab5$1590                        Lab5
C:   0000020D  A$Lab5$1594                        Lab5
C:   0000020D  C$i2c.h$112$1$85                   Lab5
C:   00000210  A$Lab5$1597                        Lab5
C:   00000210  C$i2c.h$113$1$85                   Lab5
C:   00000213  A$Lab5$1598                        Lab5
C:   00000216  A$Lab5$1599                        Lab5
C:   00000219  A$Lab5$1600                        Lab5
C:   0000021C  A$Lab5$1601                        Lab5
C:   0000021F  A$Lab5$1602                        Lab5
C:   00000222  A$Lab5$1603                        Lab5
C:   00000225  A$Lab5$1606                        Lab5
C:   00000225  C$i2c.h$114$1$85                   Lab5
C:   00000225  XG$lcd_clear$0$0                   Lab5
C:   00000226  A$Lab5$1622                        Lab5
C:   00000226  C$i2c.h$117$1$85                   Lab5
C:   00000226  C$i2c.h$121$1$86                   Lab5
C:   00000226  G$read_keypad$0$0                  Lab5
C:   00000226  _read_keypad                       Lab5
C:   00000229  A$Lab5$1623                        Lab5
C:   0000022C  A$Lab5$1624                        Lab5
C:   0000022F  A$Lab5$1625                        Lab5
C:   00000232  A$Lab5$1626                        Lab5
C:   00000235  A$Lab5$1627                        Lab5
C:   00000238  A$Lab5$1628                        Lab5
C:   0000023B  A$Lab5$1631                        Lab5
C:   0000023B  C$i2c.h$122$1$86                   Lab5
C:   0000023D  A$Lab5$1632                        Lab5
C:   00000240  A$Lab5$1633                        Lab5
C:   00000243  A$Lab5$1634                        Lab5
C:   00000245  A$Lab5$1638                        Lab5
C:   00000247  A$Lab5$1639                        Lab5
C:   00000249  A$Lab5$1643                        Lab5
C:   00000249  C$i2c.h$126$2$87                   Lab5
C:   0000024B  A$Lab5$1644                        Lab5
C:   0000024D  A$Lab5$1645                        Lab5
C:   0000024F  A$Lab5$1646                        Lab5
C:   00000251  A$Lab5$1647                        Lab5
C:   00000253  A$Lab5$1649                        Lab5
C:   00000254  A$Lab5$1650                        Lab5
C:   00000255  A$Lab5$1651                        Lab5
C:   00000256  A$Lab5$1652                        Lab5
C:   00000257  A$Lab5$1653                        Lab5
C:   00000258  A$Lab5$1654                        Lab5
ASxxxx Linker V03.00 + NoICE + sdld,  page 35.
Hexadecimal  [32-Bits]

Area                                    Addr        Size        Decimal Bytes (Attributes)
--------------------------------        ----        ----        ------- ----- ------------
CSEG                                000000F1    000018D4 =        6356. bytes (REL,CON,CODE)

      Value  Global                              Global Defined In Module
      -----  --------------------------------   ------------------------
C:   00000259  A$Lab5$1656                        Lab5
C:   0000025C  A$Lab5$1657                        Lab5
C:   0000025E  A$Lab5$1658                        Lab5
C:   00000260  A$Lab5$1659                        Lab5
C:   00000261  A$Lab5$1660                        Lab5
C:   00000263  A$Lab5$1661                        Lab5
C:   00000264  A$Lab5$1662                        Lab5
C:   00000266  A$Lab5$1663                        Lab5
C:   00000267  A$Lab5$1664                        Lab5
C:   00000268  A$Lab5$1665                        Lab5
C:   0000026A  A$Lab5$1668                        Lab5
C:   0000026A  C$i2c.h$127$2$87                   Lab5
C:   0000026C  A$Lab5$1669                        Lab5
C:   0000026D  A$Lab5$1670                        Lab5
C:   0000026F  A$Lab5$1671                        Lab5
C:   00000271  A$Lab5$1675                        Lab5
C:   00000271  C$i2c.h$124$1$86                   Lab5
C:   00000272  A$Lab5$1676                        Lab5
C:   00000274  A$Lab5$1677                        Lab5
C:   00000277  A$Lab5$1679                        Lab5
C:   00000279  A$Lab5$1682                        Lab5
C:   00000279  C$i2c.h$130$1$86                   Lab5
C:   0000027B  A$Lab5$1683                        Lab5
C:   0000027E  A$Lab5$1684                        Lab5
C:   00000281  A$Lab5$1685                        Lab5
C:   00000283  A$Lab5$1689                        Lab5
C:   00000283  C$i2c.h$132$1$86                   Lab5
C:   00000285  A$Lab5$1690                        Lab5
C:   00000288  A$Lab5$1691                        Lab5
C:   0000028B  A$Lab5$1692                        Lab5
C:   0000028D  A$Lab5$1696                        Lab5
C:   0000028D  C$i2c.h$134$1$86                   Lab5
C:   0000028F  A$Lab5$1697                        Lab5
C:   00000292  A$Lab5$1698                        Lab5
C:   00000295  A$Lab5$1699                        Lab5
C:   00000297  A$Lab5$1703                        Lab5
C:   00000297  C$i2c.h$136$1$86                   Lab5
C:   00000299  A$Lab5$1704                        Lab5
C:   0000029C  A$Lab5$1705                        Lab5
C:   0000029F  A$Lab5$1706                        Lab5
C:   000002A1  A$Lab5$1710                        Lab5
C:   000002A1  C$i2c.h$138$1$86                   Lab5
C:   000002A4  A$Lab5$1714                        Lab5
C:   000002A4  C$i2c.h$139$1$86                   Lab5
C:   000002A4  XG$read_keypad$0$0                 Lab5
C:   000002A5  A$Lab5$1730                        Lab5
C:   000002A5  C$i2c.h$151$1$86                   Lab5
C:   000002A5  G$kpd_input$0$0                    Lab5
C:   000002A5  _kpd_input                         Lab5
C:   000002A7  A$Lab5$1735                        Lab5
C:   000002A7  C$i2c.h$156$1$89                   Lab5
ASxxxx Linker V03.00 + NoICE + sdld,  page 36.
Hexadecimal  [32-Bits]

Area                                    Addr        Size        Decimal Bytes (Attributes)
--------------------------------        ----        ----        ------- ----- ------------
CSEG                                000000F1    000018D4 =        6356. bytes (REL,CON,CODE)

      Value  Global                              Global Defined In Module
      -----  --------------------------------   ------------------------
C:   000002A7  C$i2c.h$159$1$89                   Lab5
C:   000002A8  A$Lab5$1736                        Lab5
C:   000002A9  A$Lab5$1737                        Lab5
C:   000002AA  A$Lab5$1738                        Lab5
C:   000002AB  A$Lab5$1739                        Lab5
C:   000002AD  A$Lab5$1740                        Lab5
C:   000002AF  A$Lab5$1741                        Lab5
C:   000002B1  A$Lab5$1742                        Lab5
C:   000002B3  A$Lab5$1743                        Lab5
C:   000002B5  A$Lab5$1744                        Lab5
C:   000002B7  A$Lab5$1745                        Lab5
C:   000002B9  A$Lab5$1746                        Lab5
C:   000002BB  A$Lab5$1747                        Lab5
C:   000002BD  A$Lab5$1748                        Lab5
C:   000002C0  A$Lab5$1749                        Lab5
C:   000002C2  A$Lab5$1750                        Lab5
C:   000002C4  A$Lab5$1751                        Lab5
C:   000002C6  A$Lab5$1752                        Lab5
C:   000002C8  A$Lab5$1753                        Lab5
C:   000002CA  A$Lab5$1757                        Lab5
C:   000002CA  C$i2c.h$161$1$89                   Lab5
C:   000002CC  A$Lab5$1758                        Lab5
C:   000002CE  A$Lab5$1759                        Lab5
C:   000002D0  A$Lab5$1760                        Lab5
C:   000002D2  A$Lab5$1761                        Lab5
C:   000002D3  A$Lab5$1762                        Lab5
C:   000002D5  A$Lab5$1763                        Lab5
C:   000002D7  A$Lab5$1764                        Lab5
C:   000002D9  A$Lab5$1765                        Lab5
C:   000002DA  A$Lab5$1766                        Lab5
C:   000002DC  A$Lab5$1767                        Lab5
C:   000002DE  A$Lab5$1768                        Lab5
C:   000002E0  A$Lab5$1769                        Lab5
C:   000002E1  A$Lab5$1770                        Lab5
C:   000002E3  A$Lab5$1771                        Lab5
C:   000002E5  A$Lab5$1772                        Lab5
C:   000002E7  A$Lab5$1773                        Lab5
C:   000002E8  A$Lab5$1774                        Lab5
C:   000002EA  A$Lab5$1775                        Lab5
C:   000002EC  A$Lab5$1776                        Lab5
C:   000002EE  A$Lab5$1777                        Lab5
C:   000002EF  A$Lab5$1778                        Lab5
C:   000002F1  A$Lab5$1779                        Lab5
C:   000002F3  A$Lab5$1780                        Lab5
C:   000002F5  A$Lab5$1781                        Lab5
C:   000002F7  A$Lab5$1782                        Lab5
C:   000002F9  A$Lab5$1783                        Lab5
C:   000002FB  A$Lab5$1784                        Lab5
C:   000002FD  A$Lab5$1785                        Lab5
C:   00000300  A$Lab5$1786                        Lab5
C:   00000302  A$Lab5$1787                        Lab5
ASxxxx Linker V03.00 + NoICE + sdld,  page 37.
Hexadecimal  [32-Bits]

Area                                    Addr        Size        Decimal Bytes (Attributes)
--------------------------------        ----        ----        ------- ----- ------------
CSEG                                000000F1    000018D4 =        6356. bytes (REL,CON,CODE)

      Value  Global                              Global Defined In Module
      -----  --------------------------------   ------------------------
C:   00000304  A$Lab5$1788                        Lab5
C:   00000306  A$Lab5$1791                        Lab5
C:   00000306  C$i2c.h$163$1$89                   Lab5
C:   00000309  A$Lab5$1792                        Lab5
C:   0000030C  A$Lab5$1793                        Lab5
C:   0000030D  A$Lab5$1794                        Lab5
C:   00000310  A$Lab5$1795                        Lab5
C:   00000312  A$Lab5$1796                        Lab5
C:   00000314  A$Lab5$1799                        Lab5
C:   00000316  A$Lab5$1803                        Lab5
C:   00000316  C$i2c.h$169$3$92                   Lab5
C:   00000318  A$Lab5$1804                        Lab5
C:   0000031A  A$Lab5$1805                        Lab5
C:   0000031C  A$Lab5$1806                        Lab5
C:   0000031F  A$Lab5$1807                        Lab5
C:   00000321  A$Lab5$1808                        Lab5
C:   00000323  A$Lab5$1809                        Lab5
C:   00000325  A$Lab5$1810                        Lab5
C:   00000327  A$Lab5$1811                        Lab5
C:   00000329  A$Lab5$1812                        Lab5
C:   0000032C  A$Lab5$1813                        Lab5
C:   0000032E  A$Lab5$1815                        Lab5
C:   00000331  A$Lab5$1817                        Lab5
C:   00000334  A$Lab5$1818                        Lab5
C:   00000335  A$Lab5$1819                        Lab5
C:   00000337  A$Lab5$1820                        Lab5
C:   00000339  A$Lab5$1821                        Lab5
C:   0000033B  A$Lab5$1822                        Lab5
C:   0000033D  A$Lab5$1823                        Lab5
C:   00000340  A$Lab5$1824                        Lab5
C:   00000342  A$Lab5$1825                        Lab5
C:   00000344  A$Lab5$1826                        Lab5
C:   00000346  A$Lab5$1827                        Lab5
C:   00000348  A$Lab5$1831                        Lab5
C:   00000348  C$i2c.h$170$2$90                   Lab5
C:   0000034B  A$Lab5$1835                        Lab5
C:   0000034B  C$i2c.h$172$3$91                   Lab5
C:   0000034D  A$Lab5$1836                        Lab5
C:   0000034F  A$Lab5$1837                        Lab5
C:   00000352  A$Lab5$1838                        Lab5
C:   00000354  A$Lab5$1839                        Lab5
C:   00000356  A$Lab5$1840                        Lab5
C:   00000358  A$Lab5$1841                        Lab5
C:   0000035B  A$Lab5$1842                        Lab5
C:   0000035E  A$Lab5$1843                        Lab5
C:   0000035F  A$Lab5$1844                        Lab5
C:   00000361  A$Lab5$1845                        Lab5
C:   00000363  A$Lab5$1846                        Lab5
C:   00000365  A$Lab5$1847                        Lab5
C:   00000368  A$Lab5$1848                        Lab5
C:   0000036A  A$Lab5$1849                        Lab5
ASxxxx Linker V03.00 + NoICE + sdld,  page 38.
Hexadecimal  [32-Bits]

Area                                    Addr        Size        Decimal Bytes (Attributes)
--------------------------------        ----        ----        ------- ----- ------------
CSEG                                000000F1    000018D4 =        6356. bytes (REL,CON,CODE)

      Value  Global                              Global Defined In Module
      -----  --------------------------------   ------------------------
C:   0000036C  A$Lab5$1850                        Lab5
C:   0000036E  A$Lab5$1854                        Lab5
C:   0000036E  C$i2c.h$173$3$91                   Lab5
C:   00000370  A$Lab5$1855                        Lab5
C:   00000372  A$Lab5$1856                        Lab5
C:   00000375  A$Lab5$1860                        Lab5
C:   00000375  C$i2c.h$177$3$92                   Lab5
C:   00000377  A$Lab5$1861                        Lab5
C:   00000379  A$Lab5$1862                        Lab5
C:   0000037B  A$Lab5$1863                        Lab5
C:   0000037D  A$Lab5$1864                        Lab5
C:   0000037F  A$Lab5$1865                        Lab5
C:   00000381  A$Lab5$1866                        Lab5
C:   00000383  A$Lab5$1867                        Lab5
C:   00000385  A$Lab5$1868                        Lab5
C:   00000387  A$Lab5$1869                        Lab5
C:   00000389  A$Lab5$1870                        Lab5
C:   0000038B  A$Lab5$1871                        Lab5
C:   0000038D  A$Lab5$1872                        Lab5
C:   0000038F  A$Lab5$1873                        Lab5
C:   00000391  A$Lab5$1874                        Lab5
C:   00000393  A$Lab5$1875                        Lab5
C:   00000395  A$Lab5$1876                        Lab5
C:   00000398  A$Lab5$1877                        Lab5
C:   0000039A  A$Lab5$1878                        Lab5
C:   0000039C  A$Lab5$1879                        Lab5
C:   0000039E  A$Lab5$1880                        Lab5
C:   000003A0  A$Lab5$1881                        Lab5
C:   000003A2  A$Lab5$1882                        Lab5
C:   000003A4  A$Lab5$1883                        Lab5
C:   000003A6  A$Lab5$1884                        Lab5
C:   000003A8  A$Lab5$1887                        Lab5
C:   000003A8  C$i2c.h$178$1$89                   Lab5
C:   000003AA  A$Lab5$1888                        Lab5
C:   000003AC  A$Lab5$1889                        Lab5
C:   000003AF  A$Lab5$1890                        Lab5
C:   000003B1  A$Lab5$1891                        Lab5
C:   000003B3  A$Lab5$1892                        Lab5
C:   000003B5  A$Lab5$1893                        Lab5
C:   000003B8  A$Lab5$1894                        Lab5
C:   000003BA  A$Lab5$1895                        Lab5
C:   000003BC  A$Lab5$1896                        Lab5
C:   000003BE  A$Lab5$1897                        Lab5
C:   000003C0  A$Lab5$1898                        Lab5
C:   000003C2  A$Lab5$1899                        Lab5
C:   000003C4  A$Lab5$1900                        Lab5
C:   000003C5  A$Lab5$1901                        Lab5
C:   000003C6  A$Lab5$1902                        Lab5
C:   000003C7  A$Lab5$1903                        Lab5
C:   000003C8  A$Lab5$1904                        Lab5
C:   000003C9  A$Lab5$1905                        Lab5
ASxxxx Linker V03.00 + NoICE + sdld,  page 39.
Hexadecimal  [32-Bits]

Area                                    Addr        Size        Decimal Bytes (Attributes)
--------------------------------        ----        ----        ------- ----- ------------
CSEG                                000000F1    000018D4 =        6356. bytes (REL,CON,CODE)

      Value  Global                              Global Defined In Module
      -----  --------------------------------   ------------------------
C:   000003CA  A$Lab5$1906                        Lab5
C:   000003CB  A$Lab5$1907                        Lab5
C:   000003CD  A$Lab5$1908                        Lab5
C:   000003CE  A$Lab5$1909                        Lab5
C:   000003CF  A$Lab5$1910                        Lab5
C:   000003D1  A$Lab5$1911                        Lab5
C:   000003D2  A$Lab5$1915                        Lab5
C:   000003D2  C$i2c.h$179$3$92                   Lab5
C:   000003D4  A$Lab5$1916                        Lab5
C:   000003D6  A$Lab5$1917                        Lab5
C:   000003D8  A$Lab5$1918                        Lab5
C:   000003DA  A$Lab5$1919                        Lab5
C:   000003DD  A$Lab5$1920                        Lab5
C:   000003DF  A$Lab5$1921                        Lab5
C:   000003E1  A$Lab5$1922                        Lab5
C:   000003E3  A$Lab5$1923                        Lab5
C:   000003E5  A$Lab5$1924                        Lab5
C:   000003E7  A$Lab5$1925                        Lab5
C:   000003E8  A$Lab5$1926                        Lab5
C:   000003EB  A$Lab5$1927                        Lab5
C:   000003EE  A$Lab5$1928                        Lab5
C:   000003EF  A$Lab5$1929                        Lab5
C:   000003F1  A$Lab5$1930                        Lab5
C:   000003F3  A$Lab5$1931                        Lab5
C:   000003F5  A$Lab5$1932                        Lab5
C:   000003F7  A$Lab5$1933                        Lab5
C:   000003F9  A$Lab5$1934                        Lab5
C:   000003FC  A$Lab5$1935                        Lab5
C:   000003FE  A$Lab5$1936                        Lab5
C:   00000400  A$Lab5$1937                        Lab5
C:   00000402  A$Lab5$1938                        Lab5
C:   00000404  A$Lab5$1939                        Lab5
C:   00000406  A$Lab5$1943                        Lab5
C:   00000406  C$i2c.h$167$1$89                   Lab5
C:   00000407  A$Lab5$1944                        Lab5
C:   0000040A  A$Lab5$1946                        Lab5
C:   0000040C  A$Lab5$1947                        Lab5
C:   0000040F  A$Lab5$1951                        Lab5
C:   0000040F  C$i2c.h$182$1$89                   Lab5
C:   00000411  A$Lab5$1952                        Lab5
C:   00000413  A$Lab5$1956                        Lab5
C:   00000413  C$i2c.h$183$1$89                   Lab5
C:   00000413  XG$kpd_input$0$0                   Lab5
C:   00000414  A$Lab5$1970                        Lab5
C:   00000414  C$i2c.h$192$1$89                   Lab5
C:   00000414  G$delay_time$0$0                   Lab5
C:   00000414  _delay_time                        Lab5
C:   00000416  A$Lab5$1971                        Lab5
C:   00000418  A$Lab5$1972                        Lab5
C:   0000041A  A$Lab5$1973                        Lab5
C:   0000041B  A$Lab5$1976                        Lab5
ASxxxx Linker V03.00 + NoICE + sdld,  page 40.
Hexadecimal  [32-Bits]

Area                                    Addr        Size        Decimal Bytes (Attributes)
--------------------------------        ----        ----        ------- ----- ------------
CSEG                                000000F1    000018D4 =        6356. bytes (REL,CON,CODE)

      Value  Global                              Global Defined In Module
      -----  --------------------------------   ------------------------
C:   0000041B  C$i2c.h$196$1$94                   Lab5
C:   0000041D  A$Lab5$1977                        Lab5
C:   0000041F  A$Lab5$1978                        Lab5
C:   00000421  A$Lab5$1979                        Lab5
C:   00000423  A$Lab5$1981                        Lab5
C:   00000424  A$Lab5$1982                        Lab5
C:   00000425  A$Lab5$1983                        Lab5
C:   00000426  A$Lab5$1984                        Lab5
C:   00000427  A$Lab5$1985                        Lab5
C:   00000428  A$Lab5$1986                        Lab5
C:   00000429  A$Lab5$1987                        Lab5
C:   0000042A  A$Lab5$1988                        Lab5
C:   0000042B  A$Lab5$1989                        Lab5
C:   0000042C  A$Lab5$1990                        Lab5
C:   0000042E  A$Lab5$1991                        Lab5
C:   0000042F  A$Lab5$1992                        Lab5
C:   00000432  A$Lab5$1993                        Lab5
C:   00000433  A$Lab5$1994                        Lab5
C:   00000436  A$Lab5$1995                        Lab5
C:   00000437  A$Lab5$1996                        Lab5
C:   0000043A  A$Lab5$1997                        Lab5
C:   0000043B  A$Lab5$1999                        Lab5
C:   0000043D  A$Lab5$2003                        Lab5
C:   0000043D  C$i2c.h$197$1$94                   Lab5
C:   0000043D  XG$delay_time$0$0                  Lab5
C:   0000043E  A$Lab5$2017                        Lab5
C:   0000043E  C$i2c.h$200$1$94                   Lab5
C:   0000043E  C$i2c.h$202$1$96                   Lab5
C:   0000043E  G$i2c_start$0$0                    Lab5
C:   0000043E  _i2c_start                         Lab5
C:   00000441  A$Lab5$2020                        Lab5
C:   00000441  C$i2c.h$203$1$96                   Lab5
C:   00000443  A$Lab5$2024                        Lab5
C:   00000443  C$i2c.h$204$1$96                   Lab5
C:   00000446  A$Lab5$2027                        Lab5
C:   00000446  C$i2c.h$205$1$96                   Lab5
C:   00000448  A$Lab5$2030                        Lab5
C:   00000448  C$i2c.h$206$1$96                   Lab5
C:   0000044A  A$Lab5$2033                        Lab5
C:   0000044A  C$i2c.h$207$1$96                   Lab5
C:   0000044A  XG$i2c_start$0$0                   Lab5
C:   0000044B  A$Lab5$2046                        Lab5
C:   0000044B  C$i2c.h$210$1$96                   Lab5
C:   0000044B  G$i2c_write$0$0                    Lab5
C:   0000044B  _i2c_write                         Lab5
C:   0000044E  A$Lab5$2052                        Lab5
C:   0000044E  C$i2c.h$213$1$98                   Lab5
C:   0000044E  C$i2c.h$214$1$98                   Lab5
C:   00000451  A$Lab5$2053                        Lab5
C:   00000453  A$Lab5$2057                        Lab5
C:   00000453  C$i2c.h$215$1$98                   Lab5
ASxxxx Linker V03.00 + NoICE + sdld,  page 41.
Hexadecimal  [32-Bits]

Area                                    Addr        Size        Decimal Bytes (Attributes)
--------------------------------        ----        ----        ------- ----- ------------
CSEG                                000000F1    000018D4 =        6356. bytes (REL,CON,CODE)

      Value  Global                              Global Defined In Module
      -----  --------------------------------   ------------------------
C:   00000453  XG$i2c_write$0$0                   Lab5
C:   00000454  A$Lab5$2070                        Lab5
C:   00000454  C$i2c.h$218$1$98                   Lab5
C:   00000454  G$i2c_write_and_stop$0$0           Lab5
C:   00000454  _i2c_write_and_stop                Lab5
C:   00000457  A$Lab5$2073                        Lab5
C:   00000457  C$i2c.h$221$1$100                  Lab5
C:   00000459  A$Lab5$2079                        Lab5
C:   00000459  C$i2c.h$222$1$100                  Lab5
C:   00000459  C$i2c.h$223$1$100                  Lab5
C:   0000045C  A$Lab5$2080                        Lab5
C:   0000045E  A$Lab5$2084                        Lab5
C:   0000045E  C$i2c.h$224$1$100                  Lab5
C:   0000045E  XG$i2c_write_and_stop$0$0          Lab5
C:   0000045F  A$Lab5$2100                        Lab5
C:   0000045F  C$i2c.h$227$1$100                  Lab5
C:   0000045F  C$i2c.h$231$1$102                  Lab5
C:   0000045F  G$i2c_read$0$0                     Lab5
C:   0000045F  _i2c_read                          Lab5
C:   00000462  A$Lab5$2103                        Lab5
C:   00000462  C$i2c.h$232$1$102                  Lab5
C:   00000465  A$Lab5$2106                        Lab5
C:   00000465  C$i2c.h$233$1$102                  Lab5
C:   00000467  A$Lab5$2111                        Lab5
C:   00000467  C$i2c.h$234$1$102                  Lab5
C:   00000467  C$i2c.h$235$1$102                  Lab5
C:   00000467  XG$i2c_read$0$0                    Lab5
C:   00000468  A$Lab5$2127                        Lab5
C:   00000468  C$i2c.h$238$1$102                  Lab5
C:   00000468  C$i2c.h$242$1$104                  Lab5
C:   00000468  G$i2c_read_and_stop$0$0            Lab5
C:   00000468  _i2c_read_and_stop                 Lab5
C:   0000046B  A$Lab5$2130                        Lab5
C:   0000046B  C$i2c.h$243$1$104                  Lab5
C:   0000046D  A$Lab5$2133                        Lab5
C:   0000046D  C$i2c.h$244$1$104                  Lab5
C:   0000046F  A$Lab5$2136                        Lab5
C:   0000046F  C$i2c.h$245$1$104                  Lab5
C:   00000471  A$Lab5$2142                        Lab5
C:   00000471  C$i2c.h$246$1$104                  Lab5
C:   00000471  C$i2c.h$247$1$104                  Lab5
C:   00000474  A$Lab5$2143                        Lab5
C:   00000476  A$Lab5$2147                        Lab5
C:   00000476  C$i2c.h$248$1$104                  Lab5
C:   00000478  A$Lab5$2150                        Lab5
C:   00000478  C$i2c.h$249$1$104                  Lab5
C:   00000478  XG$i2c_read_and_stop$0$0           Lab5
C:   00000479  A$Lab5$2167                        Lab5
C:   00000479  C$i2c.h$252$1$104                  Lab5
C:   00000479  G$i2c_write_data$0$0               Lab5
C:   00000479  _i2c_write_data                    Lab5
ASxxxx Linker V03.00 + NoICE + sdld,  page 42.
Hexadecimal  [32-Bits]

Area                                    Addr        Size        Decimal Bytes (Attributes)
--------------------------------        ----        ----        ------- ----- ------------
CSEG                                000000F1    000018D4 =        6356. bytes (REL,CON,CODE)

      Value  Global                              Global Defined In Module
      -----  --------------------------------   ------------------------
C:   0000047B  A$Lab5$2170                        Lab5
C:   0000047B  C$i2c.h$256$1$106                  Lab5
C:   0000047D  A$Lab5$2173                        Lab5
C:   0000047D  C$i2c.h$257$1$106                  Lab5
C:   0000047F  A$Lab5$2174                        Lab5
C:   00000482  A$Lab5$2175                        Lab5
C:   00000484  A$Lab5$2178                        Lab5
C:   00000484  C$i2c.h$258$1$106                  Lab5
C:   00000486  A$Lab5$2179                        Lab5
C:   00000487  A$Lab5$2180                        Lab5
C:   00000489  A$Lab5$2181                        Lab5
C:   0000048C  A$Lab5$2184                        Lab5
C:   0000048C  C$i2c.h$259$1$106                  Lab5
C:   0000048F  A$Lab5$2185                        Lab5
C:   00000492  A$Lab5$2188                        Lab5
C:   00000494  A$Lab5$2190                        Lab5
C:   00000496  A$Lab5$2191                        Lab5
C:   00000498  A$Lab5$2192                        Lab5
C:   00000499  A$Lab5$2193                        Lab5
C:   0000049C  A$Lab5$2194                        Lab5
C:   0000049D  A$Lab5$2196                        Lab5
C:   0000049F  A$Lab5$2197                        Lab5
C:   000004A1  A$Lab5$2198                        Lab5
C:   000004A2  A$Lab5$2199                        Lab5
C:   000004A3  A$Lab5$2200                        Lab5
C:   000004A4  A$Lab5$2201                        Lab5
C:   000004A5  A$Lab5$2202                        Lab5
C:   000004A7  A$Lab5$2203                        Lab5
C:   000004A9  A$Lab5$2204                        Lab5
C:   000004AC  A$Lab5$2205                        Lab5
C:   000004AE  A$Lab5$2206                        Lab5
C:   000004B0  A$Lab5$2209                        Lab5
C:   000004B0  C$i2c.h$261$1$106                  Lab5
C:   000004B1  A$Lab5$2210                        Lab5
C:   000004B3  A$Lab5$2211                        Lab5
C:   000004B4  A$Lab5$2212                        Lab5
C:   000004B5  A$Lab5$2213                        Lab5
C:   000004B7  A$Lab5$2214                        Lab5
C:   000004B8  A$Lab5$2215                        Lab5
C:   000004BA  A$Lab5$2216                        Lab5
C:   000004BC  A$Lab5$2217                        Lab5
C:   000004BE  A$Lab5$2218                        Lab5
C:   000004C0  A$Lab5$2219                        Lab5
C:   000004C3  A$Lab5$2220                        Lab5
C:   000004C5  A$Lab5$2221                        Lab5
C:   000004C7  A$Lab5$2222                        Lab5
C:   000004CA  A$Lab5$2223                        Lab5
C:   000004CC  A$Lab5$2226                        Lab5
C:   000004CC  C$i2c.h$260$1$106                  Lab5
C:   000004CD  A$Lab5$2227                        Lab5
C:   000004CF  A$Lab5$2231                        Lab5
ASxxxx Linker V03.00 + NoICE + sdld,  page 43.
Hexadecimal  [32-Bits]

Area                                    Addr        Size        Decimal Bytes (Attributes)
--------------------------------        ----        ----        ------- ----- ------------
CSEG                                000000F1    000018D4 =        6356. bytes (REL,CON,CODE)

      Value  Global                              Global Defined In Module
      -----  --------------------------------   ------------------------
C:   000004CF  C$i2c.h$262$1$106                  Lab5
C:   000004D1  A$Lab5$2232                        Lab5
C:   000004D3  A$Lab5$2233                        Lab5
C:   000004D4  A$Lab5$2234                        Lab5
C:   000004D7  A$Lab5$2235                        Lab5
C:   000004D8  A$Lab5$2237                        Lab5
C:   000004D9  A$Lab5$2238                        Lab5
C:   000004DB  A$Lab5$2239                        Lab5
C:   000004DC  A$Lab5$2240                        Lab5
C:   000004DD  A$Lab5$2241                        Lab5
C:   000004DF  A$Lab5$2242                        Lab5
C:   000004E0  A$Lab5$2243                        Lab5
C:   000004E2  A$Lab5$2244                        Lab5
C:   000004E4  A$Lab5$2245                        Lab5
C:   000004E6  A$Lab5$2246                        Lab5
C:   000004E8  A$Lab5$2247                        Lab5
C:   000004EB  A$Lab5$2248                        Lab5
C:   000004ED  A$Lab5$2249                        Lab5
C:   000004F0  A$Lab5$2252                        Lab5
C:   000004F0  C$i2c.h$263$1$106                  Lab5
C:   000004F2  A$Lab5$2255                        Lab5
C:   000004F2  C$i2c.h$264$1$106                  Lab5
C:   000004F2  XG$i2c_write_data$0$0              Lab5
C:   000004F3  A$Lab5$2272                        Lab5
C:   000004F3  C$i2c.h$267$1$106                  Lab5
C:   000004F3  G$i2c_read_data$0$0                Lab5
C:   000004F3  _i2c_read_data                     Lab5
C:   000004F5  A$Lab5$2275                        Lab5
C:   000004F5  C$i2c.h$271$1$108                  Lab5
C:   000004F7  A$Lab5$2278                        Lab5
C:   000004F7  C$i2c.h$272$1$108                  Lab5
C:   000004F9  A$Lab5$2279                        Lab5
C:   000004FC  A$Lab5$2280                        Lab5
C:   000004FE  A$Lab5$2283                        Lab5
C:   000004FE  C$i2c.h$273$1$108                  Lab5
C:   00000500  A$Lab5$2284                        Lab5
C:   00000501  A$Lab5$2285                        Lab5
C:   00000503  A$Lab5$2286                        Lab5
C:   00000505  A$Lab5$2287                        Lab5
C:   00000508  A$Lab5$2290                        Lab5
C:   00000508  C$i2c.h$274$1$108                  Lab5
C:   0000050B  A$Lab5$2291                        Lab5
C:   0000050E  A$Lab5$2294                        Lab5
C:   0000050E  C$i2c.h$275$1$108                  Lab5
C:   00000511  A$Lab5$2295                        Lab5
C:   00000513  A$Lab5$2298                        Lab5
C:   00000513  C$i2c.h$276$1$108                  Lab5
C:   00000515  A$Lab5$2299                        Lab5
C:   00000516  A$Lab5$2300                        Lab5
C:   00000518  A$Lab5$2301                        Lab5
C:   0000051B  A$Lab5$2304                        Lab5
ASxxxx Linker V03.00 + NoICE + sdld,  page 44.
Hexadecimal  [32-Bits]

Area                                    Addr        Size        Decimal Bytes (Attributes)
--------------------------------        ----        ----        ------- ----- ------------
CSEG                                000000F1    000018D4 =        6356. bytes (REL,CON,CODE)

      Value  Global                              Global Defined In Module
      -----  --------------------------------   ------------------------
C:   0000051D  A$Lab5$2306                        Lab5
C:   0000051F  A$Lab5$2307                        Lab5
C:   00000521  A$Lab5$2308                        Lab5
C:   00000522  A$Lab5$2309                        Lab5
C:   00000525  A$Lab5$2310                        Lab5
C:   00000526  A$Lab5$2312                        Lab5
C:   00000528  A$Lab5$2313                        Lab5
C:   0000052A  A$Lab5$2314                        Lab5
C:   0000052B  A$Lab5$2315                        Lab5
C:   0000052C  A$Lab5$2316                        Lab5
C:   0000052D  A$Lab5$2317                        Lab5
C:   0000052E  A$Lab5$2318                        Lab5
C:   00000530  A$Lab5$2319                        Lab5
C:   00000532  A$Lab5$2320                        Lab5
C:   00000535  A$Lab5$2321                        Lab5
C:   00000537  A$Lab5$2322                        Lab5
C:   00000539  A$Lab5$2325                        Lab5
C:   00000539  C$i2c.h$279$2$109                  Lab5
C:   0000053B  A$Lab5$2328                        Lab5
C:   0000053B  C$i2c.h$280$2$109                  Lab5
C:   0000053C  A$Lab5$2329                        Lab5
C:   0000053E  A$Lab5$2330                        Lab5
C:   0000053F  A$Lab5$2331                        Lab5
C:   00000540  A$Lab5$2332                        Lab5
C:   00000542  A$Lab5$2333                        Lab5
C:   00000543  A$Lab5$2334                        Lab5
C:   00000545  A$Lab5$2335                        Lab5
C:   00000547  A$Lab5$2336                        Lab5
C:   00000549  A$Lab5$2337                        Lab5
C:   0000054B  A$Lab5$2338                        Lab5
C:   0000054D  A$Lab5$2339                        Lab5
C:   00000550  A$Lab5$2340                        Lab5
C:   00000552  A$Lab5$2341                        Lab5
C:   00000554  A$Lab5$2342                        Lab5
C:   00000556  A$Lab5$2343                        Lab5
C:   00000558  A$Lab5$2344                        Lab5
C:   0000055A  A$Lab5$2345                        Lab5
C:   0000055C  A$Lab5$2346                        Lab5
C:   0000055E  A$Lab5$2347                        Lab5
C:   00000560  A$Lab5$2348                        Lab5
C:   00000561  A$Lab5$2349                        Lab5
C:   00000564  A$Lab5$2352                        Lab5
C:   00000564  C$i2c.h$277$1$108                  Lab5
C:   00000565  A$Lab5$2353                        Lab5
C:   00000567  A$Lab5$2357                        Lab5
C:   00000567  C$i2c.h$282$1$108                  Lab5
C:   00000569  A$Lab5$2360                        Lab5
C:   00000569  C$i2c.h$283$1$108                  Lab5
C:   0000056B  A$Lab5$2361                        Lab5
C:   0000056D  A$Lab5$2362                        Lab5
C:   0000056E  A$Lab5$2363                        Lab5
ASxxxx Linker V03.00 + NoICE + sdld,  page 45.
Hexadecimal  [32-Bits]

Area                                    Addr        Size        Decimal Bytes (Attributes)
--------------------------------        ----        ----        ------- ----- ------------
CSEG                                000000F1    000018D4 =        6356. bytes (REL,CON,CODE)

      Value  Global                              Global Defined In Module
      -----  --------------------------------   ------------------------
C:   00000571  A$Lab5$2364                        Lab5
C:   00000572  A$Lab5$2366                        Lab5
C:   00000573  A$Lab5$2367                        Lab5
C:   00000575  A$Lab5$2368                        Lab5
C:   00000576  A$Lab5$2369                        Lab5
C:   00000577  A$Lab5$2370                        Lab5
C:   00000579  A$Lab5$2371                        Lab5
C:   0000057A  A$Lab5$2372                        Lab5
C:   0000057C  A$Lab5$2373                        Lab5
C:   0000057E  A$Lab5$2374                        Lab5
C:   00000580  A$Lab5$2375                        Lab5
C:   00000582  A$Lab5$2376                        Lab5
C:   00000585  A$Lab5$2377                        Lab5
C:   00000587  A$Lab5$2378                        Lab5
C:   00000589  A$Lab5$2379                        Lab5
C:   0000058B  A$Lab5$2380                        Lab5
C:   0000058D  A$Lab5$2381                        Lab5
C:   0000058F  A$Lab5$2382                        Lab5
C:   00000591  A$Lab5$2383                        Lab5
C:   00000593  A$Lab5$2384                        Lab5
C:   00000594  A$Lab5$2385                        Lab5
C:   00000597  A$Lab5$2388                        Lab5
C:   00000597  C$i2c.h$284$1$108                  Lab5
C:   00000599  A$Lab5$2391                        Lab5
C:   00000599  C$i2c.h$285$1$108                  Lab5
C:   00000599  XG$i2c_read_data$0$0               Lab5
C:   0000059A  A$Lab5$2404                        Lab5
C:   0000059A  C$i2c.h$294$1$108                  Lab5
C:   0000059A  C$i2c.h$298$1$111                  Lab5
C:   0000059A  G$Accel_Init$0$0                   Lab5
C:   0000059A  _Accel_Init                        Lab5
C:   0000059D  A$Lab5$2407                        Lab5
C:   0000059D  C$i2c.h$300$1$111                  Lab5
C:   000005A0  A$Lab5$2410                        Lab5
C:   000005A0  C$i2c.h$301$1$111                  Lab5
C:   000005A3  A$Lab5$2413                        Lab5
C:   000005A3  C$i2c.h$302$1$111                  Lab5
C:   000005A6  A$Lab5$2416                        Lab5
C:   000005A6  C$i2c.h$304$1$111                  Lab5
C:   000005A9  A$Lab5$2417                        Lab5
C:   000005AC  A$Lab5$2418                        Lab5
C:   000005AF  A$Lab5$2419                        Lab5
C:   000005B2  A$Lab5$2420                        Lab5
C:   000005B5  A$Lab5$2421                        Lab5
C:   000005B8  A$Lab5$2422                        Lab5
C:   000005BB  A$Lab5$2425                        Lab5
C:   000005BB  C$i2c.h$310$1$111                  Lab5
C:   000005BB  XG$Accel_Init$0$0                  Lab5
C:   000005BC  A$Lab5$2438                        Lab5
C:   000005BC  C$i2c.h$313$1$111                  Lab5
C:   000005BC  C$i2c.h$318$1$113                  Lab5
ASxxxx Linker V03.00 + NoICE + sdld,  page 46.
Hexadecimal  [32-Bits]

Area                                    Addr        Size        Decimal Bytes (Attributes)
--------------------------------        ----        ----        ------- ----- ------------
CSEG                                000000F1    000018D4 =        6356. bytes (REL,CON,CODE)

      Value  Global                              Global Defined In Module
      -----  --------------------------------   ------------------------
C:   000005BC  G$Accel_Init_C$0$0                 Lab5
C:   000005BC  _Accel_Init_C                      Lab5
C:   000005BF  A$Lab5$2441                        Lab5
C:   000005BF  C$i2c.h$319$1$113                  Lab5
C:   000005C2  A$Lab5$2442                        Lab5
C:   000005C5  A$Lab5$2443                        Lab5
C:   000005C8  A$Lab5$2444                        Lab5
C:   000005CB  A$Lab5$2445                        Lab5
C:   000005CE  A$Lab5$2446                        Lab5
C:   000005D1  A$Lab5$2447                        Lab5
C:   000005D4  A$Lab5$2450                        Lab5
C:   000005D4  C$i2c.h$321$1$113                  Lab5
C:   000005D7  A$Lab5$2453                        Lab5
C:   000005D7  C$i2c.h$323$1$113                  Lab5
C:   000005DA  A$Lab5$2456                        Lab5
C:   000005DA  C$i2c.h$325$1$113                  Lab5
C:   000005DD  A$Lab5$2459                        Lab5
C:   000005DD  C$i2c.h$326$1$113                  Lab5
C:   000005E0  A$Lab5$2460                        Lab5
C:   000005E3  A$Lab5$2461                        Lab5
C:   000005E6  A$Lab5$2462                        Lab5
C:   000005E9  A$Lab5$2463                        Lab5
C:   000005EC  A$Lab5$2464                        Lab5
C:   000005EF  A$Lab5$2465                        Lab5
C:   000005F2  A$Lab5$2468                        Lab5
C:   000005F2  C$i2c.h$328$1$113                  Lab5
C:   000005F2  XG$Accel_Init_C$0$0                Lab5
C:   000005F3  A$Lab5$2481                        Lab5
C:   000005F3  C$Lab5.c$70$1$113                  Lab5
C:   000005F3  C$Lab5.c$72$1$126                  Lab5
C:   000005F3  G$main$0$0                         Lab5
C:   000005F3  _main                              Lab5
C:   000005F6  A$Lab5$2484                        Lab5
C:   000005F6  C$Lab5.c$73$1$126                  Lab5
C:   000005F9  A$Lab5$2485                        Lab5
C:   000005FC  A$Lab5$2488                        Lab5
C:   000005FC  C$Lab5.c$74$1$126                  Lab5
C:   000005FF  A$Lab5$2491                        Lab5
C:   000005FF  C$Lab5.c$75$1$126                  Lab5
C:   00000602  A$Lab5$2494                        Lab5
C:   00000602  C$Lab5.c$76$1$126                  Lab5
C:   00000605  A$Lab5$2497                        Lab5
C:   00000605  C$Lab5.c$77$1$126                  Lab5
C:   00000608  A$Lab5$2500                        Lab5
C:   00000608  C$Lab5.c$78$1$126                  Lab5
C:   0000060B  A$Lab5$2503                        Lab5
C:   0000060B  C$Lab5.c$79$1$126                  Lab5
C:   0000060E  A$Lab5$2506                        Lab5
C:   0000060E  C$Lab5.c$80$1$126                  Lab5
C:   00000611  A$Lab5$2509                        Lab5
C:   00000611  C$Lab5.c$84$1$126                  Lab5
ASxxxx Linker V03.00 + NoICE + sdld,  page 47.
Hexadecimal  [32-Bits]

Area                                    Addr        Size        Decimal Bytes (Attributes)
--------------------------------        ----        ----        ------- ----- ------------
CSEG                                000000F1    000018D4 =        6356. bytes (REL,CON,CODE)

      Value  Global                              Global Defined In Module
      -----  --------------------------------   ------------------------
C:   00000613  A$Lab5$2510                        Lab5
C:   00000615  A$Lab5$2511                        Lab5
C:   00000617  A$Lab5$2512                        Lab5
C:   00000619  A$Lab5$2513                        Lab5
C:   0000061B  A$Lab5$2514                        Lab5
C:   0000061D  A$Lab5$2515                        Lab5
C:   00000620  A$Lab5$2516                        Lab5
C:   00000622  A$Lab5$2517                        Lab5
C:   00000624  A$Lab5$2518                        Lab5
C:   00000626  A$Lab5$2521                        Lab5
C:   00000626  C$Lab5.c$85$1$126                  Lab5
C:   00000628  A$Lab5$2522                        Lab5
C:   0000062A  A$Lab5$2523                        Lab5
C:   0000062C  A$Lab5$2524                        Lab5
C:   0000062E  A$Lab5$2525                        Lab5
C:   00000630  A$Lab5$2526                        Lab5
C:   00000632  A$Lab5$2527                        Lab5
C:   00000635  A$Lab5$2528                        Lab5
C:   00000637  A$Lab5$2529                        Lab5
C:   00000639  A$Lab5$2530                        Lab5
C:   0000063B  A$Lab5$2533                        Lab5
C:   0000063B  C$Lab5.c$86$1$126                  Lab5
C:   0000063E  A$Lab5$2534                        Lab5
C:   00000641  A$Lab5$2537                        Lab5
C:   00000641  C$Lab5.c$87$1$126                  Lab5
C:   00000643  A$Lab5$2538                        Lab5
C:   00000646  A$Lab5$2541                        Lab5
C:   00000646  C$Lab5.c$88$1$126                  Lab5
C:   00000649  A$Lab5$2542                        Lab5
C:   0000064B  A$Lab5$2546                        Lab5
C:   0000064B  C$Lab5.c$89$1$126                  Lab5
C:   0000064D  A$Lab5$2547                        Lab5
C:   00000650  A$Lab5$2550                        Lab5
C:   00000650  C$Lab5.c$90$1$126                  Lab5
C:   00000653  A$Lab5$2551                        Lab5
C:   00000655  A$Lab5$2555                        Lab5
C:   00000655  C$Lab5.c$91$1$126                  Lab5
C:   00000657  A$Lab5$2556                        Lab5
C:   0000065A  A$Lab5$2559                        Lab5
C:   0000065A  C$Lab5.c$92$1$126                  Lab5
C:   0000065D  A$Lab5$2560                        Lab5
C:   0000065F  A$Lab5$2564                        Lab5
C:   0000065F  C$Lab5.c$94$1$126                  Lab5
C:   00000662  A$Lab5$2568                        Lab5
C:   00000662  C$Lab5.c$97$1$126                  Lab5
C:   00000664  A$Lab5$2569                        Lab5
C:   00000666  A$Lab5$2570                        Lab5
C:   00000668  A$Lab5$2571                        Lab5
C:   0000066A  A$Lab5$2572                        Lab5
C:   0000066C  A$Lab5$2573                        Lab5
C:   0000066E  A$Lab5$2574                        Lab5
ASxxxx Linker V03.00 + NoICE + sdld,  page 48.
Hexadecimal  [32-Bits]

Area                                    Addr        Size        Decimal Bytes (Attributes)
--------------------------------        ----        ----        ------- ----- ------------
CSEG                                000000F1    000018D4 =        6356. bytes (REL,CON,CODE)

      Value  Global                              Global Defined In Module
      -----  --------------------------------   ------------------------
C:   00000671  A$Lab5$2575                        Lab5
C:   00000673  A$Lab5$2576                        Lab5
C:   00000675  A$Lab5$2577                        Lab5
C:   00000677  A$Lab5$2580                        Lab5
C:   00000677  C$Lab5.c$98$1$126                  Lab5
C:   00000679  A$Lab5$2581                        Lab5
C:   0000067B  A$Lab5$2582                        Lab5
C:   0000067D  A$Lab5$2583                        Lab5
C:   0000067F  A$Lab5$2584                        Lab5
C:   00000681  A$Lab5$2585                        Lab5
C:   00000683  A$Lab5$2586                        Lab5
C:   00000686  A$Lab5$2587                        Lab5
C:   00000688  A$Lab5$2588                        Lab5
C:   0000068A  A$Lab5$2589                        Lab5
C:   0000068C  A$Lab5$2592                        Lab5
C:   0000068C  C$Lab5.c$99$1$126                  Lab5
C:   0000068F  A$Lab5$2593                        Lab5
C:   00000692  A$Lab5$2596                        Lab5
C:   00000692  C$Lab5.c$100$1$126                 Lab5
C:   00000694  A$Lab5$2597                        Lab5
C:   00000697  A$Lab5$2600                        Lab5
C:   00000697  C$Lab5.c$101$1$126                 Lab5
C:   0000069A  A$Lab5$2601                        Lab5
C:   0000069D  A$Lab5$2602                        Lab5
C:   000006A0  A$Lab5$2603                        Lab5
C:   000006A3  A$Lab5$2604                        Lab5
C:   000006A5  A$Lab5$2608                        Lab5
C:   000006A5  C$Lab5.c$102$1$126                 Lab5
C:   000006A7  A$Lab5$2609                        Lab5
C:   000006AA  A$Lab5$2612                        Lab5
C:   000006AA  C$Lab5.c$103$1$126                 Lab5
C:   000006AB  A$Lab5$2613                        Lab5
C:   000006AD  A$Lab5$2614                        Lab5
C:   000006AF  A$Lab5$2615                        Lab5
C:   000006B2  A$Lab5$2616                        Lab5
C:   000006B5  A$Lab5$2617                        Lab5
C:   000006B7  A$Lab5$2621                        Lab5
C:   000006B7  C$Lab5.c$104$1$126                 Lab5
C:   000006B9  A$Lab5$2622                        Lab5
C:   000006BC  A$Lab5$2625                        Lab5
C:   000006BC  C$Lab5.c$105$1$126                 Lab5
C:   000006BD  A$Lab5$2626                        Lab5
C:   000006BF  A$Lab5$2627                        Lab5
C:   000006C1  A$Lab5$2628                        Lab5
C:   000006C3  A$Lab5$2629                        Lab5
C:   000006C6  A$Lab5$2630                        Lab5
C:   000006C8  A$Lab5$2634                        Lab5
C:   000006C8  C$Lab5.c$107$1$126                 Lab5
C:   000006C9  A$Lab5$2635                        Lab5
C:   000006CB  A$Lab5$2636                        Lab5
C:   000006CD  A$Lab5$2637                        Lab5
ASxxxx Linker V03.00 + NoICE + sdld,  page 49.
Hexadecimal  [32-Bits]

Area                                    Addr        Size        Decimal Bytes (Attributes)
--------------------------------        ----        ----        ------- ----- ------------
CSEG                                000000F1    000018D4 =        6356. bytes (REL,CON,CODE)

      Value  Global                              Global Defined In Module
      -----  --------------------------------   ------------------------
C:   000006D0  A$Lab5$2638                        Lab5
C:   000006D3  A$Lab5$2642                        Lab5
C:   000006D3  C$Lab5.c$110$1$126                 Lab5
C:   000006D6  A$Lab5$2643                        Lab5
C:   000006D9  A$Lab5$2646                        Lab5
C:   000006D9  C$Lab5.c$111$1$126                 Lab5
C:   000006DC  A$Lab5$2647                        Lab5
C:   000006DF  A$Lab5$2650                        Lab5
C:   000006DF  C$Lab5.c$112$1$126                 Lab5
C:   000006E2  A$Lab5$2654                        Lab5
C:   000006E2  C$Lab5.c$113$1$126                 Lab5
C:   000006E4  A$Lab5$2655                        Lab5
C:   000006E6  A$Lab5$2656                        Lab5
C:   000006E8  A$Lab5$2659                        Lab5
C:   000006E8  C$Lab5.c$116$1$126                 Lab5
C:   000006EA  A$Lab5$2660                        Lab5
C:   000006EC  A$Lab5$2661                        Lab5
C:   000006EE  A$Lab5$2662                        Lab5
C:   000006F0  A$Lab5$2663                        Lab5
C:   000006F2  A$Lab5$2664                        Lab5
C:   000006F4  A$Lab5$2665                        Lab5
C:   000006F7  A$Lab5$2666                        Lab5
C:   000006F9  A$Lab5$2667                        Lab5
C:   000006FB  A$Lab5$2668                        Lab5
C:   000006FD  A$Lab5$2671                        Lab5
C:   000006FD  C$Lab5.c$117$1$126                 Lab5
C:   00000700  A$Lab5$2675                        Lab5
C:   00000700  C$Lab5.c$118$1$126                 Lab5
C:   00000702  A$Lab5$2676                        Lab5
C:   00000704  A$Lab5$2677                        Lab5
C:   00000706  A$Lab5$2680                        Lab5
C:   00000706  C$Lab5.c$119$1$126                 Lab5
C:   00000709  A$Lab5$2683                        Lab5
C:   00000709  C$Lab5.c$120$1$126                 Lab5
C:   0000070B  A$Lab5$2684                        Lab5
C:   0000070D  A$Lab5$2685                        Lab5
C:   0000070F  A$Lab5$2686                        Lab5
C:   00000711  A$Lab5$2687                        Lab5
C:   00000713  A$Lab5$2688                        Lab5
C:   00000715  A$Lab5$2689                        Lab5
C:   00000718  A$Lab5$2690                        Lab5
C:   0000071A  A$Lab5$2691                        Lab5
C:   0000071C  A$Lab5$2692                        Lab5
C:   0000071E  A$Lab5$2695                        Lab5
C:   0000071E  C$Lab5.c$123$1$126                 Lab5
C:   00000720  A$Lab5$2696                        Lab5
C:   00000722  A$Lab5$2697                        Lab5
C:   00000724  A$Lab5$2698                        Lab5
C:   00000726  A$Lab5$2699                        Lab5
C:   00000728  A$Lab5$2700                        Lab5
C:   0000072A  A$Lab5$2701                        Lab5
ASxxxx Linker V03.00 + NoICE + sdld,  page 50.
Hexadecimal  [32-Bits]

Area                                    Addr        Size        Decimal Bytes (Attributes)
--------------------------------        ----        ----        ------- ----- ------------
CSEG                                000000F1    000018D4 =        6356. bytes (REL,CON,CODE)

      Value  Global                              Global Defined In Module
      -----  --------------------------------   ------------------------
C:   0000072D  A$Lab5$2702                        Lab5
C:   0000072F  A$Lab5$2703                        Lab5
C:   00000731  A$Lab5$2704                        Lab5
C:   00000733  A$Lab5$2707                        Lab5
C:   00000733  C$Lab5.c$124$1$126                 Lab5
C:   00000735  A$Lab5$2710                        Lab5
C:   00000735  C$Lab5.c$125$1$126                 Lab5
C:   00000738  A$Lab5$2717                        Lab5
C:   00000738  C$Lab5.c$126$1$126                 Lab5
C:   00000738  C$Lab5.c$127$1$126                 Lab5
C:   00000738  C$Lab5.c$128$1$126                 Lab5
C:   00000739  A$Lab5$2718                        Lab5
C:   0000073B  A$Lab5$2719                        Lab5
C:   0000073D  A$Lab5$2720                        Lab5
C:   0000073F  A$Lab5$2721                        Lab5
C:   00000741  A$Lab5$2724                        Lab5
C:   00000741  C$Lab5.c$129$1$126                 Lab5
C:   00000743  A$Lab5$2725                        Lab5
C:   00000745  A$Lab5$2726                        Lab5
C:   00000747  A$Lab5$2727                        Lab5
C:   00000749  A$Lab5$2728                        Lab5
C:   0000074C  A$Lab5$2729                        Lab5
C:   0000074F  A$Lab5$2730                        Lab5
C:   00000751  A$Lab5$2731                        Lab5
C:   00000754  A$Lab5$2732                        Lab5
C:   00000756  A$Lab5$2733                        Lab5
C:   00000758  A$Lab5$2734                        Lab5
C:   0000075A  A$Lab5$2735                        Lab5
C:   0000075B  A$Lab5$2736                        Lab5
C:   0000075D  A$Lab5$2737                        Lab5
C:   0000075F  A$Lab5$2738                        Lab5
C:   00000761  A$Lab5$2739                        Lab5
C:   00000763  A$Lab5$2740                        Lab5
C:   00000765  A$Lab5$2741                        Lab5
C:   00000767  A$Lab5$2742                        Lab5
C:   00000768  A$Lab5$2743                        Lab5
C:   0000076B  A$Lab5$2744                        Lab5
C:   0000076D  A$Lab5$2745                        Lab5
C:   0000076F  A$Lab5$2746                        Lab5
C:   00000771  A$Lab5$2747                        Lab5
C:   00000773  A$Lab5$2748                        Lab5
C:   00000775  A$Lab5$2749                        Lab5
C:   00000777  A$Lab5$2750                        Lab5
C:   00000779  A$Lab5$2751                        Lab5
C:   0000077B  A$Lab5$2752                        Lab5
C:   0000077D  A$Lab5$2753                        Lab5
C:   0000077F  A$Lab5$2754                        Lab5
C:   00000781  A$Lab5$2755                        Lab5
C:   00000783  A$Lab5$2756                        Lab5
C:   00000785  A$Lab5$2757                        Lab5
C:   00000787  A$Lab5$2758                        Lab5
ASxxxx Linker V03.00 + NoICE + sdld,  page 51.
Hexadecimal  [32-Bits]

Area                                    Addr        Size        Decimal Bytes (Attributes)
--------------------------------        ----        ----        ------- ----- ------------
CSEG                                000000F1    000018D4 =        6356. bytes (REL,CON,CODE)

      Value  Global                              Global Defined In Module
      -----  --------------------------------   ------------------------
C:   0000078A  A$Lab5$2759                        Lab5
C:   0000078C  A$Lab5$2760                        Lab5
C:   0000078E  A$Lab5$2761                        Lab5
C:   00000790  A$Lab5$2764                        Lab5
C:   00000790  C$Lab5.c$130$1$126                 Lab5
C:   00000792  A$Lab5$2765                        Lab5
C:   00000794  A$Lab5$2766                        Lab5
C:   00000796  A$Lab5$2767                        Lab5
C:   00000798  A$Lab5$2768                        Lab5
C:   0000079A  A$Lab5$2769                        Lab5
C:   0000079C  A$Lab5$2770                        Lab5
C:   0000079F  A$Lab5$2771                        Lab5
C:   000007A1  A$Lab5$2772                        Lab5
C:   000007A3  A$Lab5$2773                        Lab5
C:   000007A5  A$Lab5$2779                        Lab5
C:   000007A5  C$Lab5.c$131$1$126                 Lab5
C:   000007A5  C$Lab5.c$133$2$127                 Lab5
C:   000007A7  A$Lab5$2780                        Lab5
C:   000007A9  A$Lab5$2783                        Lab5
C:   000007A9  C$Lab5.c$134$3$128                 Lab5
C:   000007AB  A$Lab5$2786                        Lab5
C:   000007AB  C$Lab5.c$135$3$128                 Lab5
C:   000007AE  A$Lab5$2790                        Lab5
C:   000007AE  C$Lab5.c$137$2$127                 Lab5
C:   000007B0  A$Lab5$2791                        Lab5
C:   000007B2  A$Lab5$2792                        Lab5
C:   000007B4  A$Lab5$2793                        Lab5
C:   000007B6  A$Lab5$2794                        Lab5
C:   000007B8  A$Lab5$2795                        Lab5
C:   000007BA  A$Lab5$2796                        Lab5
C:   000007BC  A$Lab5$2799                        Lab5
C:   000007BC  C$Lab5.c$138$3$129                 Lab5
C:   000007BE  A$Lab5$2802                        Lab5
C:   000007BE  C$Lab5.c$139$3$129                 Lab5
C:   000007C1  A$Lab5$2805                        Lab5
C:   000007C1  C$Lab5.c$140$3$129                 Lab5
C:   000007C4  A$Lab5$2806                        Lab5
C:   000007C6  A$Lab5$2810                        Lab5
C:   000007C6  C$Lab5.c$142$2$127                 Lab5
C:   000007C8  A$Lab5$2811                        Lab5
C:   000007CA  A$Lab5$2812                        Lab5
C:   000007CC  A$Lab5$2813                        Lab5
C:   000007CE  A$Lab5$2814                        Lab5
C:   000007D0  A$Lab5$2815                        Lab5
C:   000007D2  A$Lab5$2816                        Lab5
C:   000007D4  A$Lab5$2819                        Lab5
C:   000007D4  C$Lab5.c$143$3$130                 Lab5
C:   000007D6  A$Lab5$2822                        Lab5
C:   000007D6  C$Lab5.c$144$3$130                 Lab5
C:   000007D9  A$Lab5$2825                        Lab5
C:   000007D9  C$Lab5.c$145$3$130                 Lab5
ASxxxx Linker V03.00 + NoICE + sdld,  page 52.
Hexadecimal  [32-Bits]

Area                                    Addr        Size        Decimal Bytes (Attributes)
--------------------------------        ----        ----        ------- ----- ------------
CSEG                                000000F1    000018D4 =        6356. bytes (REL,CON,CODE)

      Value  Global                              Global Defined In Module
      -----  --------------------------------   ------------------------
C:   000007DC  A$Lab5$2829                        Lab5
C:   000007DC  C$Lab5.c$147$2$127                 Lab5
C:   000007DE  A$Lab5$2830                        Lab5
C:   000007E0  A$Lab5$2831                        Lab5
C:   000007E2  A$Lab5$2832                        Lab5
C:   000007E5  A$Lab5$2836                        Lab5
C:   000007E5  C$Lab5.c$148$3$131                 Lab5
C:   000007E8  A$Lab5$2839                        Lab5
C:   000007E8  C$Lab5.c$149$1$126                 Lab5
C:   000007EB  A$Lab5$2840                        Lab5
C:   000007EE  A$Lab5$2841                        Lab5
C:   000007F0  A$Lab5$2842                        Lab5
C:   000007F2  A$Lab5$2843                        Lab5
C:   000007F4  A$Lab5$2844                        Lab5
C:   000007F5  A$Lab5$2845                        Lab5
C:   000007F6  A$Lab5$2846                        Lab5
C:   000007F8  A$Lab5$2847                        Lab5
C:   000007FA  A$Lab5$2848                        Lab5
C:   000007FC  A$Lab5$2849                        Lab5
C:   000007FE  A$Lab5$2850                        Lab5
C:   00000800  A$Lab5$2851                        Lab5
C:   00000802  A$Lab5$2852                        Lab5
C:   00000804  A$Lab5$2853                        Lab5
C:   00000806  A$Lab5$2854                        Lab5
C:   00000808  A$Lab5$2855                        Lab5
C:   00000809  A$Lab5$2856                        Lab5
C:   0000080C  A$Lab5$2857                        Lab5
C:   0000080E  A$Lab5$2858                        Lab5
C:   00000810  A$Lab5$2859                        Lab5
C:   00000812  A$Lab5$2860                        Lab5
C:   00000813  A$Lab5$2861                        Lab5
C:   00000815  A$Lab5$2862                        Lab5
C:   00000817  A$Lab5$2863                        Lab5
C:   00000819  A$Lab5$2864                        Lab5
C:   0000081B  A$Lab5$2865                        Lab5
C:   0000081D  A$Lab5$2866                        Lab5
C:   0000081F  A$Lab5$2867                        Lab5
C:   00000821  A$Lab5$2868                        Lab5
C:   00000824  A$Lab5$2869                        Lab5
C:   00000827  A$Lab5$2870                        Lab5
C:   00000829  A$Lab5$2871                        Lab5
C:   0000082C  A$Lab5$2872                        Lab5
C:   0000082E  A$Lab5$2873                        Lab5
C:   00000830  A$Lab5$2874                        Lab5
C:   00000832  A$Lab5$2875                        Lab5
C:   00000833  A$Lab5$2876                        Lab5
C:   00000835  A$Lab5$2877                        Lab5
C:   00000837  A$Lab5$2878                        Lab5
C:   00000839  A$Lab5$2879                        Lab5
C:   0000083A  A$Lab5$2880                        Lab5
C:   0000083C  A$Lab5$2881                        Lab5
ASxxxx Linker V03.00 + NoICE + sdld,  page 53.
Hexadecimal  [32-Bits]

Area                                    Addr        Size        Decimal Bytes (Attributes)
--------------------------------        ----        ----        ------- ----- ------------
CSEG                                000000F1    000018D4 =        6356. bytes (REL,CON,CODE)

      Value  Global                              Global Defined In Module
      -----  --------------------------------   ------------------------
C:   0000083E  A$Lab5$2882                        Lab5
C:   00000840  A$Lab5$2883                        Lab5
C:   00000842  A$Lab5$2884                        Lab5
C:   00000844  A$Lab5$2885                        Lab5
C:   00000846  A$Lab5$2886                        Lab5
C:   00000848  A$Lab5$2887                        Lab5
C:   0000084A  A$Lab5$2888                        Lab5
C:   0000084C  A$Lab5$2889                        Lab5
C:   0000084D  A$Lab5$2890                        Lab5
C:   00000850  A$Lab5$2891                        Lab5
C:   00000852  A$Lab5$2892                        Lab5
C:   00000854  A$Lab5$2893                        Lab5
C:   00000856  A$Lab5$2894                        Lab5
C:   00000857  A$Lab5$2895                        Lab5
C:   00000859  A$Lab5$2896                        Lab5
C:   0000085B  A$Lab5$2897                        Lab5
C:   0000085D  A$Lab5$2898                        Lab5
C:   0000085F  A$Lab5$2899                        Lab5
C:   00000861  A$Lab5$2900                        Lab5
C:   00000863  A$Lab5$2901                        Lab5
C:   00000864  A$Lab5$2902                        Lab5
C:   00000867  A$Lab5$2903                        Lab5
C:   0000086A  A$Lab5$2906                        Lab5
C:   0000086A  C$Lab5.c$150$3$131                 Lab5
C:   0000086D  A$Lab5$2910                        Lab5
C:   0000086D  C$Lab5.c$152$2$127                 Lab5
C:   0000086E  A$Lab5$2911                        Lab5
C:   00000870  A$Lab5$2912                        Lab5
C:   00000872  A$Lab5$2913                        Lab5
C:   00000874  A$Lab5$2914                        Lab5
C:   00000876  A$Lab5$2915                        Lab5
C:   00000878  A$Lab5$2916                        Lab5
C:   0000087B  A$Lab5$2920                        Lab5
C:   0000087B  C$Lab5.c$153$3$132                 Lab5
C:   0000087E  A$Lab5$2923                        Lab5
C:   0000087E  C$Lab5.c$154$3$132                 Lab5
C:   00000880  A$Lab5$2924                        Lab5
C:   00000882  A$Lab5$2925                        Lab5
C:   00000884  A$Lab5$2926                        Lab5
C:   00000886  A$Lab5$2927                        Lab5
C:   00000888  A$Lab5$2928                        Lab5
C:   0000088A  A$Lab5$2929                        Lab5
C:   0000088C  A$Lab5$2930                        Lab5
C:   0000088E  A$Lab5$2931                        Lab5
C:   00000890  A$Lab5$2932                        Lab5
C:   00000892  A$Lab5$2933                        Lab5
C:   00000895  A$Lab5$2934                        Lab5
C:   00000897  A$Lab5$2935                        Lab5
C:   00000899  A$Lab5$2936                        Lab5
C:   0000089B  A$Lab5$2939                        Lab5
C:   0000089B  C$Lab5.c$155$3$132                 Lab5
ASxxxx Linker V03.00 + NoICE + sdld,  page 54.
Hexadecimal  [32-Bits]

Area                                    Addr        Size        Decimal Bytes (Attributes)
--------------------------------        ----        ----        ------- ----- ------------
CSEG                                000000F1    000018D4 =        6356. bytes (REL,CON,CODE)

      Value  Global                              Global Defined In Module
      -----  --------------------------------   ------------------------
C:   0000089D  A$Lab5$2940                        Lab5
C:   0000089F  A$Lab5$2941                        Lab5
C:   000008A1  A$Lab5$2942                        Lab5
C:   000008A3  A$Lab5$2943                        Lab5
C:   000008A5  A$Lab5$2944                        Lab5
C:   000008A7  A$Lab5$2945                        Lab5
C:   000008A9  A$Lab5$2946                        Lab5
C:   000008AB  A$Lab5$2947                        Lab5
C:   000008AD  A$Lab5$2948                        Lab5
C:   000008AF  A$Lab5$2949                        Lab5
C:   000008B1  A$Lab5$2950                        Lab5
C:   000008B3  A$Lab5$2951                        Lab5
C:   000008B5  A$Lab5$2952                        Lab5
C:   000008B7  A$Lab5$2953                        Lab5
C:   000008BA  A$Lab5$2954                        Lab5
C:   000008BC  A$Lab5$2955                        Lab5
C:   000008BE  A$Lab5$2956                        Lab5
C:   000008C0  A$Lab5$2959                        Lab5
C:   000008C0  C$Lab5.c$156$1$126                 Lab5
C:   000008C2  A$Lab5$2960                        Lab5
C:   000008C4  A$Lab5$2961                        Lab5
C:   000008C6  A$Lab5$2962                        Lab5
C:   000008C8  A$Lab5$2963                        Lab5
C:   000008CB  A$Lab5$2964                        Lab5
C:   000008CE  A$Lab5$2965                        Lab5
C:   000008D0  A$Lab5$2966                        Lab5
C:   000008D3  A$Lab5$2967                        Lab5
C:   000008D5  A$Lab5$2968                        Lab5
C:   000008D7  A$Lab5$2969                        Lab5
C:   000008D9  A$Lab5$2970                        Lab5
C:   000008DA  A$Lab5$2971                        Lab5
C:   000008DC  A$Lab5$2972                        Lab5
C:   000008DE  A$Lab5$2973                        Lab5
C:   000008E0  A$Lab5$2974                        Lab5
C:   000008E2  A$Lab5$2975                        Lab5
C:   000008E4  A$Lab5$2976                        Lab5
C:   000008E6  A$Lab5$2977                        Lab5
C:   000008E7  A$Lab5$2978                        Lab5
C:   000008EA  A$Lab5$2979                        Lab5
C:   000008EC  A$Lab5$2980                        Lab5
C:   000008EE  A$Lab5$2981                        Lab5
C:   000008F0  A$Lab5$2982                        Lab5
C:   000008F2  A$Lab5$2983                        Lab5
C:   000008F4  A$Lab5$2984                        Lab5
C:   000008F6  A$Lab5$2985                        Lab5
C:   000008F8  A$Lab5$2986                        Lab5
C:   000008FA  A$Lab5$2987                        Lab5
C:   000008FC  A$Lab5$2988                        Lab5
C:   000008FE  A$Lab5$2989                        Lab5
C:   00000901  A$Lab5$2990                        Lab5
C:   00000903  A$Lab5$2991                        Lab5
ASxxxx Linker V03.00 + NoICE + sdld,  page 55.
Hexadecimal  [32-Bits]

Area                                    Addr        Size        Decimal Bytes (Attributes)
--------------------------------        ----        ----        ------- ----- ------------
CSEG                                000000F1    000018D4 =        6356. bytes (REL,CON,CODE)

      Value  Global                              Global Defined In Module
      -----  --------------------------------   ------------------------
C:   00000905  A$Lab5$2992                        Lab5
C:   00000907  A$Lab5$2995                        Lab5
C:   00000907  C$Lab5.c$159$3$132                 Lab5
C:   00000909  A$Lab5$2996                        Lab5
C:   0000090B  A$Lab5$2997                        Lab5
C:   0000090D  A$Lab5$2998                        Lab5
C:   0000090E  A$Lab5$2999                        Lab5
C:   00000910  A$Lab5$3000                        Lab5
C:   00000911  A$Lab5$3001                        Lab5
C:   00000913  A$Lab5$3002                        Lab5
C:   00000915  A$Lab5$3003                        Lab5
C:   00000916  A$Lab5$3004                        Lab5
C:   00000918  A$Lab5$3005                        Lab5
C:   00000919  A$Lab5$3006                        Lab5
C:   0000091B  A$Lab5$3007                        Lab5
C:   0000091C  A$Lab5$3008                        Lab5
C:   0000091E  A$Lab5$3009                        Lab5
C:   00000920  A$Lab5$3010                        Lab5
C:   00000921  A$Lab5$3011                        Lab5
C:   00000923  A$Lab5$3012                        Lab5
C:   00000925  A$Lab5$3013                        Lab5
C:   00000927  A$Lab5$3014                        Lab5
C:   00000929  A$Lab5$3015                        Lab5
C:   0000092B  A$Lab5$3016                        Lab5
C:   0000092D  A$Lab5$3017                        Lab5
C:   0000092F  A$Lab5$3018                        Lab5
C:   00000931  A$Lab5$3019                        Lab5
C:   00000933  A$Lab5$3020                        Lab5
C:   00000935  A$Lab5$3021                        Lab5
C:   00000937  A$Lab5$3022                        Lab5
C:   00000939  A$Lab5$3023                        Lab5
C:   0000093B  A$Lab5$3024                        Lab5
C:   0000093D  A$Lab5$3025                        Lab5
C:   0000093F  A$Lab5$3026                        Lab5
C:   00000941  A$Lab5$3027                        Lab5
C:   00000944  A$Lab5$3028                        Lab5
C:   00000946  A$Lab5$3029                        Lab5
C:   00000948  A$Lab5$3030                        Lab5
C:   0000094A  A$Lab5$3033                        Lab5
C:   0000094A  C$Lab5.c$162$3$132                 Lab5
C:   0000094B  A$Lab5$3034                        Lab5
C:   0000094D  A$Lab5$3035                        Lab5
C:   0000094F  A$Lab5$3039                        Lab5
C:   0000094F  C$Lab5.c$164$2$127                 Lab5
C:   00000952  A$Lab5$3040                        Lab5
C:   00000955  A$Lab5$3043                        Lab5
C:   00000955  C$Lab5.c$167$1$126                 Lab5
C:   00000955  XG$main$0$0                        Lab5
C:   00000956  A$Lab5$3056                        Lab5
C:   00000956  C$Lab5.c$175$1$126                 Lab5
C:   00000956  C$Lab5.c$177$1$133                 Lab5
ASxxxx Linker V03.00 + NoICE + sdld,  page 56.
Hexadecimal  [32-Bits]

Area                                    Addr        Size        Decimal Bytes (Attributes)
--------------------------------        ----        ----        ------- ----- ------------
CSEG                                000000F1    000018D4 =        6356. bytes (REL,CON,CODE)

      Value  Global                              Global Defined In Module
      -----  --------------------------------   ------------------------
C:   00000956  G$Port_Init$0$0                    Lab5
C:   00000956  _Port_Init                         Lab5
C:   00000959  A$Lab5$3059                        Lab5
C:   00000959  C$Lab5.c$178$1$133                 Lab5
C:   0000095C  A$Lab5$3062                        Lab5
C:   0000095C  C$Lab5.c$179$1$133                 Lab5
C:   0000095F  A$Lab5$3065                        Lab5
C:   0000095F  C$Lab5.c$180$1$133                 Lab5
C:   00000962  A$Lab5$3068                        Lab5
C:   00000962  C$Lab5.c$181$1$133                 Lab5
C:   00000962  XG$Port_Init$0$0                   Lab5
C:   00000963  A$Lab5$3081                        Lab5
C:   00000963  C$Lab5.c$188$1$133                 Lab5
C:   00000963  C$Lab5.c$190$1$134                 Lab5
C:   00000963  G$XBR0_Init$0$0                    Lab5
C:   00000963  _XBR0_Init                         Lab5
C:   00000966  A$Lab5$3084                        Lab5
C:   00000966  C$Lab5.c$191$1$134                 Lab5
C:   00000966  XG$XBR0_Init$0$0                   Lab5
C:   00000967  A$Lab5$3097                        Lab5
C:   00000967  C$Lab5.c$193$1$134                 Lab5
C:   00000967  C$Lab5.c$194$1$136                 Lab5
C:   00000967  G$SMB_Init$0$0                     Lab5
C:   00000967  _SMB_Init                          Lab5
C:   0000096A  A$Lab5$3100                        Lab5
C:   0000096A  C$Lab5.c$195$1$136                 Lab5
C:   0000096C  A$Lab5$3103                        Lab5
C:   0000096C  C$Lab5.c$196$1$136                 Lab5
C:   0000096C  XG$SMB_Init$0$0                    Lab5
C:   0000096D  A$Lab5$3116                        Lab5
C:   0000096D  C$Lab5.c$198$1$136                 Lab5
C:   0000096D  C$Lab5.c$199$1$138                 Lab5
C:   0000096D  G$ADC_Init$0$0                     Lab5
C:   0000096D  _ADC_Init                          Lab5
C:   00000970  A$Lab5$3119                        Lab5
C:   00000970  C$Lab5.c$200$1$138                 Lab5
C:   00000973  A$Lab5$3122                        Lab5
C:   00000973  C$Lab5.c$201$1$138                 Lab5
C:   00000976  A$Lab5$3125                        Lab5
C:   00000976  C$Lab5.c$203$1$138                 Lab5
C:   00000976  XG$ADC_Init$0$0                    Lab5
C:   00000977  A$Lab5$3138                        Lab5
C:   00000977  C$Lab5.c$205$1$138                 Lab5
C:   00000977  C$Lab5.c$206$1$140                 Lab5
C:   00000977  G$ADC_Convert$0$0                  Lab5
C:   00000977  _ADC_Convert                       Lab5
C:   0000097A  A$Lab5$3141                        Lab5
C:   0000097A  C$Lab5.c$207$1$140                 Lab5
C:   0000097D  A$Lab5$3144                        Lab5
C:   0000097D  C$Lab5.c$208$1$140                 Lab5
C:   00000980  A$Lab5$3148                        Lab5
ASxxxx Linker V03.00 + NoICE + sdld,  page 57.
Hexadecimal  [32-Bits]

Area                                    Addr        Size        Decimal Bytes (Attributes)
--------------------------------        ----        ----        ------- ----- ------------
CSEG                                000000F1    000018D4 =        6356. bytes (REL,CON,CODE)

      Value  Global                              Global Defined In Module
      -----  --------------------------------   ------------------------
C:   00000980  C$Lab5.c$209$1$140                 Lab5
C:   00000982  A$Lab5$3149                        Lab5
C:   00000985  A$Lab5$3152                        Lab5
C:   00000985  C$Lab5.c$210$1$140                 Lab5
C:   00000988  A$Lab5$3155                        Lab5
C:   00000988  C$Lab5.c$211$1$140                 Lab5
C:   00000988  XG$ADC_Convert$0$0                 Lab5
C:   00000989  A$Lab5$3168                        Lab5
C:   00000989  C$Lab5.c$213$1$140                 Lab5
C:   00000989  C$Lab5.c$215$1$142                 Lab5
C:   00000989  G$PCA_Init$0$0                     Lab5
C:   00000989  _PCA_Init                          Lab5
C:   0000098C  A$Lab5$3171                        Lab5
C:   0000098C  C$Lab5.c$216$1$142                 Lab5
C:   0000098F  A$Lab5$3174                        Lab5
C:   0000098F  C$Lab5.c$217$1$142                 Lab5
C:   00000992  A$Lab5$3177                        Lab5
C:   00000992  C$Lab5.c$218$1$142                 Lab5
C:   00000995  A$Lab5$3180                        Lab5
C:   00000995  C$Lab5.c$219$1$142                 Lab5
C:   00000995  XG$PCA_Init$0$0                    Lab5
C:   00000996  A$Lab5$3193                        Lab5
C:   00000996  C$Lab5.c$221$1$142                 Lab5
C:   00000996  C$Lab5.c$223$1$144                 Lab5
C:   00000996  G$Interrupt_Init$0$0               Lab5
C:   00000996  _Interrupt_Init                    Lab5
C:   00000999  A$Lab5$3196                        Lab5
C:   00000999  C$Lab5.c$225$1$144                 Lab5
C:   0000099B  A$Lab5$3199                        Lab5
C:   0000099B  C$Lab5.c$226$1$144                 Lab5
C:   0000099B  XG$Interrupt_Init$0$0              Lab5
C:   0000099C  A$Lab5$3210                        Lab5
C:   0000099C  C$Lab5.c$228$1$144                 Lab5
C:   0000099C  G$PCA_ISR$0$0                      Lab5
C:   0000099C  _PCA_ISR                           Lab5
C:   0000099E  A$Lab5$3211                        Lab5
C:   000009A0  A$Lab5$3216                        Lab5
C:   000009A0  C$Lab5.c$230$1$146                 Lab5
C:   000009A0  C$Lab5.c$232$2$147                 Lab5
C:   000009A3  A$Lab5$3217                        Lab5
C:   000009A5  A$Lab5$3221                        Lab5
C:   000009A5  C$Lab5.c$233$2$147                 Lab5
C:   000009A7  A$Lab5$3224                        Lab5
C:   000009A7  C$Lab5.c$234$2$147                 Lab5
C:   000009A9  A$Lab5$3227                        Lab5
C:   000009A9  C$Lab5.c$235$2$147                 Lab5
C:   000009AB  A$Lab5$3230                        Lab5
C:   000009AB  C$Lab5.c$236$2$147                 Lab5
C:   000009AD  A$Lab5$3231                        Lab5
C:   000009AE  A$Lab5$3232                        Lab5
C:   000009B1  A$Lab5$3233                        Lab5
ASxxxx Linker V03.00 + NoICE + sdld,  page 58.
Hexadecimal  [32-Bits]

Area                                    Addr        Size        Decimal Bytes (Attributes)
--------------------------------        ----        ----        ------- ----- ------------
CSEG                                000000F1    000018D4 =        6356. bytes (REL,CON,CODE)

      Value  Global                              Global Defined In Module
      -----  --------------------------------   ------------------------
C:   000009B3  A$Lab5$3237                        Lab5
C:   000009B3  C$Lab5.c$237$2$147                 Lab5
C:   000009B5  A$Lab5$3238                        Lab5
C:   000009B7  A$Lab5$3239                        Lab5
C:   000009B9  A$Lab5$3242                        Lab5
C:   000009B9  C$Lab5.c$238$3$148                 Lab5
C:   000009BC  A$Lab5$3245                        Lab5
C:   000009BC  C$Lab5.c$239$3$148                 Lab5
C:   000009BF  A$Lab5$3249                        Lab5
C:   000009BF  C$Lab5.c$244$2$147                 Lab5
C:   000009C2  A$Lab5$3250                        Lab5
C:   000009C5  A$Lab5$3254                        Lab5
C:   000009C5  C$Lab5.c$246$1$146                 Lab5
C:   000009C8  A$Lab5$3255                        Lab5
C:   000009CA  A$Lab5$3256                        Lab5
C:   000009CC  A$Lab5$3259                        Lab5
C:   000009CC  C$Lab5.c$247$1$146                 Lab5
C:   000009CC  XG$PCA_ISR$0$0                     Lab5
C:   000009CD  A$Lab5$3282                        Lab5
C:   000009CD  C$Lab5.c$249$1$146                 Lab5
C:   000009CD  C$Lab5.c$252$1$146                 Lab5
C:   000009CD  C$Lab5.c$253$1$146                 Lab5
C:   000009CD  G$calibrateAccel$0$0               Lab5
C:   000009CD  _calibrateAccel                    Lab5
C:   000009CE  A$Lab5$3283                        Lab5
C:   000009CF  A$Lab5$3284                        Lab5
C:   000009D0  A$Lab5$3285                        Lab5
C:   000009D2  A$Lab5$3286                        Lab5
C:   000009D4  A$Lab5$3290                        Lab5
C:   000009D4  C$Lab5.c$255$1$150                 Lab5
C:   000009D6  A$Lab5$3294                        Lab5
C:   000009D6  C$Lab5.c$256$1$150                 Lab5
C:   000009D8  A$Lab5$3298                        Lab5
C:   000009D8  C$Lab5.c$257$1$150                 Lab5
C:   000009DA  A$Lab5$3299                        Lab5
C:   000009DC  A$Lab5$3302                        Lab5
C:   000009DE  A$Lab5$3303                        Lab5
C:   000009E0  A$Lab5$3307                        Lab5
C:   000009E0  C$Lab5.c$260$2$151                 Lab5
C:   000009E3  A$Lab5$3308                        Lab5
C:   000009E6  A$Lab5$3309                        Lab5
C:   000009E9  A$Lab5$3310                        Lab5
C:   000009EC  A$Lab5$3311                        Lab5
C:   000009EF  A$Lab5$3312                        Lab5
C:   000009F2  A$Lab5$3313                        Lab5
C:   000009F4  A$Lab5$3314                        Lab5
C:   000009F6  A$Lab5$3315                        Lab5
C:   000009F8  A$Lab5$3316                        Lab5
C:   000009FA  A$Lab5$3317                        Lab5
C:   000009FD  A$Lab5$3318                        Lab5
C:   000009FF  A$Lab5$3319                        Lab5
ASxxxx Linker V03.00 + NoICE + sdld,  page 59.
Hexadecimal  [32-Bits]

Area                                    Addr        Size        Decimal Bytes (Attributes)
--------------------------------        ----        ----        ------- ----- ------------
CSEG                                000000F1    000018D4 =        6356. bytes (REL,CON,CODE)

      Value  Global                              Global Defined In Module
      -----  --------------------------------   ------------------------
C:   00000A01  A$Lab5$3320                        Lab5
C:   00000A03  A$Lab5$3321                        Lab5
C:   00000A05  A$Lab5$3325                        Lab5
C:   00000A05  C$Lab5.c$261$2$151                 Lab5
C:   00000A07  A$Lab5$3326                        Lab5
C:   00000A09  A$Lab5$3327                        Lab5
C:   00000A0A  A$Lab5$3328                        Lab5
C:   00000A0D  A$Lab5$3329                        Lab5
C:   00000A0F  A$Lab5$3333                        Lab5
C:   00000A0F  C$Lab5.c$262$3$152                 Lab5
C:   00000A11  A$Lab5$3334                        Lab5
C:   00000A13  A$Lab5$3335                        Lab5
C:   00000A14  A$Lab5$3336                        Lab5
C:   00000A17  A$Lab5$3337                        Lab5
C:   00000A19  A$Lab5$3341                        Lab5
C:   00000A19  C$Lab5.c$268$4$154                 Lab5
C:   00000A1C  A$Lab5$3345                        Lab5
C:   00000A1C  C$Lab5.c$269$4$154                 Lab5
C:   00000A1E  A$Lab5$3346                        Lab5
C:   00000A20  A$Lab5$3349                        Lab5
C:   00000A20  C$Lab5.c$270$4$154                 Lab5
C:   00000A23  A$Lab5$3350                        Lab5
C:   00000A26  A$Lab5$3351                        Lab5
C:   00000A29  A$Lab5$3352                        Lab5
C:   00000A2C  A$Lab5$3353                        Lab5
C:   00000A2F  A$Lab5$3354                        Lab5
C:   00000A32  A$Lab5$3355                        Lab5
C:   00000A34  A$Lab5$3356                        Lab5
C:   00000A36  A$Lab5$3357                        Lab5
C:   00000A38  A$Lab5$3358                        Lab5
C:   00000A3A  A$Lab5$3359                        Lab5
C:   00000A3D  A$Lab5$3360                        Lab5
C:   00000A3F  A$Lab5$3361                        Lab5
C:   00000A41  A$Lab5$3362                        Lab5
C:   00000A43  A$Lab5$3363                        Lab5
C:   00000A45  A$Lab5$3364                        Lab5
C:   00000A47  A$Lab5$3368                        Lab5
C:   00000A47  C$Lab5.c$273$2$151                 Lab5
C:   00000A4A  A$Lab5$3372                        Lab5
C:   00000A4A  C$Lab5.c$274$2$151                 Lab5
C:   00000A4C  A$Lab5$3373                        Lab5
C:   00000A4E  A$Lab5$3376                        Lab5
C:   00000A4E  C$Lab5.c$275$2$151                 Lab5
C:   00000A51  A$Lab5$3377                        Lab5
C:   00000A54  A$Lab5$3378                        Lab5
C:   00000A57  A$Lab5$3379                        Lab5
C:   00000A5A  A$Lab5$3380                        Lab5
C:   00000A5D  A$Lab5$3381                        Lab5
C:   00000A60  A$Lab5$3382                        Lab5
C:   00000A62  A$Lab5$3383                        Lab5
C:   00000A64  A$Lab5$3384                        Lab5
ASxxxx Linker V03.00 + NoICE + sdld,  page 60.
Hexadecimal  [32-Bits]

Area                                    Addr        Size        Decimal Bytes (Attributes)
--------------------------------        ----        ----        ------- ----- ------------
CSEG                                000000F1    000018D4 =        6356. bytes (REL,CON,CODE)

      Value  Global                              Global Defined In Module
      -----  --------------------------------   ------------------------
C:   00000A66  A$Lab5$3385                        Lab5
C:   00000A68  A$Lab5$3386                        Lab5
C:   00000A6B  A$Lab5$3387                        Lab5
C:   00000A6D  A$Lab5$3388                        Lab5
C:   00000A6F  A$Lab5$3389                        Lab5
C:   00000A71  A$Lab5$3390                        Lab5
C:   00000A73  A$Lab5$3393                        Lab5
C:   00000A73  C$Lab5.c$276$2$151                 Lab5
C:   00000A75  A$Lab5$3394                        Lab5
C:   00000A77  A$Lab5$3395                        Lab5
C:   00000A78  A$Lab5$3396                        Lab5
C:   00000A79  A$Lab5$3397                        Lab5
C:   00000A7A  A$Lab5$3398                        Lab5
C:   00000A7B  A$Lab5$3399                        Lab5
C:   00000A7D  A$Lab5$3400                        Lab5
C:   00000A7E  A$Lab5$3401                        Lab5
C:   00000A7F  A$Lab5$3402                        Lab5
C:   00000A81  A$Lab5$3403                        Lab5
C:   00000A82  A$Lab5$3404                        Lab5
C:   00000A83  A$Lab5$3405                        Lab5
C:   00000A84  A$Lab5$3406                        Lab5
C:   00000A87  A$Lab5$3407                        Lab5
C:   00000A89  A$Lab5$3409                        Lab5
C:   00000A8A  A$Lab5$3410                        Lab5
C:   00000A8B  A$Lab5$3411                        Lab5
C:   00000A8C  A$Lab5$3412                        Lab5
C:   00000A8D  A$Lab5$3413                        Lab5
C:   00000A8E  A$Lab5$3414                        Lab5
C:   00000A8F  A$Lab5$3415                        Lab5
C:   00000A90  A$Lab5$3418                        Lab5
C:   00000A90  C$Lab5.c$277$2$151                 Lab5
C:   00000A92  A$Lab5$3419                        Lab5
C:   00000A94  A$Lab5$3420                        Lab5
C:   00000A95  A$Lab5$3421                        Lab5
C:   00000A96  A$Lab5$3422                        Lab5
C:   00000A97  A$Lab5$3423                        Lab5
C:   00000A98  A$Lab5$3424                        Lab5
C:   00000A9A  A$Lab5$3425                        Lab5
C:   00000A9B  A$Lab5$3426                        Lab5
C:   00000A9C  A$Lab5$3427                        Lab5
C:   00000A9E  A$Lab5$3428                        Lab5
C:   00000A9F  A$Lab5$3429                        Lab5
C:   00000AA0  A$Lab5$3430                        Lab5
C:   00000AA1  A$Lab5$3431                        Lab5
C:   00000AA4  A$Lab5$3432                        Lab5
C:   00000AA6  A$Lab5$3434                        Lab5
C:   00000AA7  A$Lab5$3435                        Lab5
C:   00000AA8  A$Lab5$3436                        Lab5
C:   00000AAA  A$Lab5$3437                        Lab5
C:   00000AAC  A$Lab5$3438                        Lab5
C:   00000AAD  A$Lab5$3439                        Lab5
ASxxxx Linker V03.00 + NoICE + sdld,  page 61.
Hexadecimal  [32-Bits]

Area                                    Addr        Size        Decimal Bytes (Attributes)
--------------------------------        ----        ----        ------- ----- ------------
CSEG                                000000F1    000018D4 =        6356. bytes (REL,CON,CODE)

      Value  Global                              Global Defined In Module
      -----  --------------------------------   ------------------------
C:   00000AAF  A$Lab5$3440                        Lab5
C:   00000AB1  A$Lab5$3443                        Lab5
C:   00000AB1  C$Lab5.c$258$1$150                 Lab5
C:   00000AB2  A$Lab5$3444                        Lab5
C:   00000AB5  A$Lab5$3445                        Lab5
C:   00000AB6  A$Lab5$3447                        Lab5
C:   00000AB7  A$Lab5$3448                        Lab5
C:   00000AB8  A$Lab5$3449                        Lab5
C:   00000ABA  A$Lab5$3450                        Lab5
C:   00000ABB  A$Lab5$3451                        Lab5
C:   00000ABD  A$Lab5$3452                        Lab5
C:   00000ABF  A$Lab5$3453                        Lab5
C:   00000AC2  A$Lab5$3457                        Lab5
C:   00000AC2  C$Lab5.c$281$1$150                 Lab5
C:   00000AC5  A$Lab5$3458                        Lab5
C:   00000AC8  A$Lab5$3459                        Lab5
C:   00000ACA  A$Lab5$3460                        Lab5
C:   00000ACC  A$Lab5$3461                        Lab5
C:   00000ACF  A$Lab5$3462                        Lab5
C:   00000AD1  A$Lab5$3463                        Lab5
C:   00000AD3  A$Lab5$3466                        Lab5
C:   00000AD3  C$Lab5.c$282$1$150                 Lab5
C:   00000AD6  A$Lab5$3467                        Lab5
C:   00000AD9  A$Lab5$3468                        Lab5
C:   00000ADC  A$Lab5$3469                        Lab5
C:   00000ADF  A$Lab5$3470                        Lab5
C:   00000AE1  A$Lab5$3471                        Lab5
C:   00000AE3  A$Lab5$3472                        Lab5
C:   00000AE6  A$Lab5$3473                        Lab5
C:   00000AE9  A$Lab5$3474                        Lab5
C:   00000AEC  A$Lab5$3475                        Lab5
C:   00000AEE  A$Lab5$3476                        Lab5
C:   00000AF0  A$Lab5$3479                        Lab5
C:   00000AF0  C$Lab5.c$286$1$150                 Lab5
C:   00000AF2  A$Lab5$3480                        Lab5
C:   00000AF4  A$Lab5$3485                        Lab5
C:   00000AF4  C$Lab5.c$287$1$150                 Lab5
C:   00000AF4  C$Lab5.c$288$1$150                 Lab5
C:   00000AF4  XG$calibrateAccel$0$0              Lab5
C:   00000AF5  A$Lab5$3504                        Lab5
C:   00000AF5  C$Lab5.c$291$1$150                 Lab5
C:   00000AF5  C$Lab5.c$293$1$150                 Lab5
C:   00000AF5  G$read_accels$0$0                  Lab5
C:   00000AF5  _read_accels                       Lab5
C:   00000AF6  A$Lab5$3505                        Lab5
C:   00000AF8  A$Lab5$3506                        Lab5
C:   00000AFA  A$Lab5$3509                        Lab5
C:   00000AFA  C$Lab5.c$294$1$150                 Lab5
C:   00000AFC  A$Lab5$3510                        Lab5
C:   00000AFE  A$Lab5$3513                        Lab5
C:   00000AFE  C$Lab5.c$297$1$156                 Lab5
ASxxxx Linker V03.00 + NoICE + sdld,  page 62.
Hexadecimal  [32-Bits]

Area                                    Addr        Size        Decimal Bytes (Attributes)
--------------------------------        ----        ----        ------- ----- ------------
CSEG                                000000F1    000018D4 =        6356. bytes (REL,CON,CODE)

      Value  Global                              Global Defined In Module
      -----  --------------------------------   ------------------------
C:   00000B00  A$Lab5$3514                        Lab5
C:   00000B02  A$Lab5$3515                        Lab5
C:   00000B04  A$Lab5$3516                        Lab5
C:   00000B06  A$Lab5$3518                        Lab5
C:   00000B08  A$Lab5$3519                        Lab5
C:   00000B0A  A$Lab5$3520                        Lab5
C:   00000B0D  A$Lab5$3521                        Lab5
C:   00000B0F  A$Lab5$3523                        Lab5
C:   00000B11  A$Lab5$3524                        Lab5
C:   00000B13  A$Lab5$3527                        Lab5
C:   00000B15  A$Lab5$3528                        Lab5
C:   00000B16  A$Lab5$3529                        Lab5
C:   00000B17  A$Lab5$3533                        Lab5
C:   00000B17  C$Lab5.c$300$2$157                 Lab5
C:   00000B1A  A$Lab5$3534                        Lab5
C:   00000B1D  A$Lab5$3535                        Lab5
C:   00000B20  A$Lab5$3536                        Lab5
C:   00000B23  A$Lab5$3537                        Lab5
C:   00000B26  A$Lab5$3538                        Lab5
C:   00000B29  A$Lab5$3539                        Lab5
C:   00000B2B  A$Lab5$3540                        Lab5
C:   00000B2D  A$Lab5$3541                        Lab5
C:   00000B30  A$Lab5$3542                        Lab5
C:   00000B32  A$Lab5$3543                        Lab5
C:   00000B34  A$Lab5$3547                        Lab5
C:   00000B34  C$Lab5.c$301$2$157                 Lab5
C:   00000B36  A$Lab5$3548                        Lab5
C:   00000B38  A$Lab5$3549                        Lab5
C:   00000B39  A$Lab5$3550                        Lab5
C:   00000B3C  A$Lab5$3551                        Lab5
C:   00000B3E  A$Lab5$3555                        Lab5
C:   00000B3E  C$Lab5.c$302$3$158                 Lab5
C:   00000B40  A$Lab5$3556                        Lab5
C:   00000B42  A$Lab5$3557                        Lab5
C:   00000B43  A$Lab5$3558                        Lab5
C:   00000B46  A$Lab5$3559                        Lab5
C:   00000B48  A$Lab5$3563                        Lab5
C:   00000B48  C$Lab5.c$308$4$160                 Lab5
C:   00000B4A  A$Lab5$3564                        Lab5
C:   00000B4C  A$Lab5$3565                        Lab5
C:   00000B4E  A$Lab5$3566                        Lab5
C:   00000B50  A$Lab5$3568                        Lab5
C:   00000B51  A$Lab5$3569                        Lab5
C:   00000B54  A$Lab5$3570                        Lab5
C:   00000B55  A$Lab5$3572                        Lab5
C:   00000B56  A$Lab5$3573                        Lab5
C:   00000B57  A$Lab5$3576                        Lab5
C:   00000B57  C$Lab5.c$309$4$160                 Lab5
C:   00000B59  A$Lab5$3577                        Lab5
C:   00000B5C  A$Lab5$3578                        Lab5
C:   00000B5E  A$Lab5$3579                        Lab5
ASxxxx Linker V03.00 + NoICE + sdld,  page 63.
Hexadecimal  [32-Bits]

Area                                    Addr        Size        Decimal Bytes (Attributes)
--------------------------------        ----        ----        ------- ----- ------------
CSEG                                000000F1    000018D4 =        6356. bytes (REL,CON,CODE)

      Value  Global                              Global Defined In Module
      -----  --------------------------------   ------------------------
C:   00000B61  A$Lab5$3580                        Lab5
C:   00000B64  A$Lab5$3581                        Lab5
C:   00000B67  A$Lab5$3582                        Lab5
C:   00000B6A  A$Lab5$3583                        Lab5
C:   00000B6C  A$Lab5$3584                        Lab5
C:   00000B6E  A$Lab5$3585                        Lab5
C:   00000B71  A$Lab5$3586                        Lab5
C:   00000B73  A$Lab5$3587                        Lab5
C:   00000B75  A$Lab5$3588                        Lab5
C:   00000B77  A$Lab5$3592                        Lab5
C:   00000B77  C$Lab5.c$312$2$157                 Lab5
C:   00000B79  A$Lab5$3593                        Lab5
C:   00000B7B  A$Lab5$3595                        Lab5
C:   00000B7C  A$Lab5$3596                        Lab5
C:   00000B7F  A$Lab5$3597                        Lab5
C:   00000B80  A$Lab5$3599                        Lab5
C:   00000B81  A$Lab5$3600                        Lab5
C:   00000B82  A$Lab5$3603                        Lab5
C:   00000B82  C$Lab5.c$313$2$157                 Lab5
C:   00000B84  A$Lab5$3604                        Lab5
C:   00000B87  A$Lab5$3605                        Lab5
C:   00000B89  A$Lab5$3606                        Lab5
C:   00000B8C  A$Lab5$3607                        Lab5
C:   00000B8F  A$Lab5$3608                        Lab5
C:   00000B92  A$Lab5$3609                        Lab5
C:   00000B95  A$Lab5$3610                        Lab5
C:   00000B97  A$Lab5$3611                        Lab5
C:   00000B99  A$Lab5$3612                        Lab5
C:   00000B9C  A$Lab5$3613                        Lab5
C:   00000B9E  A$Lab5$3614                        Lab5
C:   00000BA0  A$Lab5$3617                        Lab5
C:   00000BA0  C$Lab5.c$314$2$157                 Lab5
C:   00000BA2  A$Lab5$3618                        Lab5
C:   00000BA4  A$Lab5$3619                        Lab5
C:   00000BA5  A$Lab5$3620                        Lab5
C:   00000BA6  A$Lab5$3621                        Lab5
C:   00000BA7  A$Lab5$3622                        Lab5
C:   00000BA8  A$Lab5$3623                        Lab5
C:   00000BAA  A$Lab5$3624                        Lab5
C:   00000BAB  A$Lab5$3625                        Lab5
C:   00000BAC  A$Lab5$3626                        Lab5
C:   00000BAE  A$Lab5$3627                        Lab5
C:   00000BAF  A$Lab5$3628                        Lab5
C:   00000BB0  A$Lab5$3629                        Lab5
C:   00000BB1  A$Lab5$3630                        Lab5
C:   00000BB4  A$Lab5$3631                        Lab5
C:   00000BB6  A$Lab5$3633                        Lab5
C:   00000BB7  A$Lab5$3634                        Lab5
C:   00000BB8  A$Lab5$3635                        Lab5
C:   00000BBA  A$Lab5$3636                        Lab5
C:   00000BBC  A$Lab5$3637                        Lab5
ASxxxx Linker V03.00 + NoICE + sdld,  page 64.
Hexadecimal  [32-Bits]

Area                                    Addr        Size        Decimal Bytes (Attributes)
--------------------------------        ----        ----        ------- ----- ------------
CSEG                                000000F1    000018D4 =        6356. bytes (REL,CON,CODE)

      Value  Global                              Global Defined In Module
      -----  --------------------------------   ------------------------
C:   00000BBD  A$Lab5$3638                        Lab5
C:   00000BBF  A$Lab5$3639                        Lab5
C:   00000BC1  A$Lab5$3642                        Lab5
C:   00000BC1  C$Lab5.c$315$2$157                 Lab5
C:   00000BC3  A$Lab5$3643                        Lab5
C:   00000BC5  A$Lab5$3644                        Lab5
C:   00000BC6  A$Lab5$3645                        Lab5
C:   00000BC7  A$Lab5$3646                        Lab5
C:   00000BC8  A$Lab5$3647                        Lab5
C:   00000BC9  A$Lab5$3648                        Lab5
C:   00000BCB  A$Lab5$3649                        Lab5
C:   00000BCC  A$Lab5$3650                        Lab5
C:   00000BCD  A$Lab5$3651                        Lab5
C:   00000BCF  A$Lab5$3652                        Lab5
C:   00000BD0  A$Lab5$3653                        Lab5
C:   00000BD1  A$Lab5$3654                        Lab5
C:   00000BD2  A$Lab5$3655                        Lab5
C:   00000BD5  A$Lab5$3656                        Lab5
C:   00000BD7  A$Lab5$3658                        Lab5
C:   00000BD8  A$Lab5$3659                        Lab5
C:   00000BD9  A$Lab5$3660                        Lab5
C:   00000BDB  A$Lab5$3661                        Lab5
C:   00000BDD  A$Lab5$3662                        Lab5
C:   00000BDE  A$Lab5$3663                        Lab5
C:   00000BE0  A$Lab5$3664                        Lab5
C:   00000BE2  A$Lab5$3667                        Lab5
C:   00000BE2  C$Lab5.c$298$1$156                 Lab5
C:   00000BE3  A$Lab5$3668                        Lab5
C:   00000BE6  A$Lab5$3669                        Lab5
C:   00000BE7  A$Lab5$3671                        Lab5
C:   00000BE8  A$Lab5$3672                        Lab5
C:   00000BE9  A$Lab5$3673                        Lab5
C:   00000BEB  A$Lab5$3674                        Lab5
C:   00000BEC  A$Lab5$3675                        Lab5
C:   00000BEE  A$Lab5$3676                        Lab5
C:   00000BF0  A$Lab5$3677                        Lab5
C:   00000BF3  A$Lab5$3681                        Lab5
C:   00000BF3  C$Lab5.c$319$1$156                 Lab5
C:   00000BF6  A$Lab5$3682                        Lab5
C:   00000BF8  A$Lab5$3683                        Lab5
C:   00000BFA  A$Lab5$3684                        Lab5
C:   00000BFB  A$Lab5$3685                        Lab5
C:   00000BFD  A$Lab5$3686                        Lab5
C:   00000BFE  A$Lab5$3687                        Lab5
C:   00000C00  A$Lab5$3688                        Lab5
C:   00000C02  A$Lab5$3689                        Lab5
C:   00000C03  A$Lab5$3690                        Lab5
C:   00000C05  A$Lab5$3691                        Lab5
C:   00000C06  A$Lab5$3692                        Lab5
C:   00000C08  A$Lab5$3693                        Lab5
C:   00000C0A  A$Lab5$3696                        Lab5
ASxxxx Linker V03.00 + NoICE + sdld,  page 65.
Hexadecimal  [32-Bits]

Area                                    Addr        Size        Decimal Bytes (Attributes)
--------------------------------        ----        ----        ------- ----- ------------
CSEG                                000000F1    000018D4 =        6356. bytes (REL,CON,CODE)

      Value  Global                              Global Defined In Module
      -----  --------------------------------   ------------------------
C:   00000C0A  C$Lab5.c$320$1$156                 Lab5
C:   00000C0D  A$Lab5$3697                        Lab5
C:   00000C0F  A$Lab5$3698                        Lab5
C:   00000C11  A$Lab5$3699                        Lab5
C:   00000C12  A$Lab5$3700                        Lab5
C:   00000C14  A$Lab5$3701                        Lab5
C:   00000C15  A$Lab5$3702                        Lab5
C:   00000C17  A$Lab5$3703                        Lab5
C:   00000C19  A$Lab5$3704                        Lab5
C:   00000C1A  A$Lab5$3705                        Lab5
C:   00000C1C  A$Lab5$3706                        Lab5
C:   00000C1D  A$Lab5$3707                        Lab5
C:   00000C1F  A$Lab5$3708                        Lab5
C:   00000C21  A$Lab5$3711                        Lab5
C:   00000C21  C$Lab5.c$326$1$156                 Lab5
C:   00000C24  A$Lab5$3712                        Lab5
C:   00000C27  A$Lab5$3713                        Lab5
C:   00000C2A  A$Lab5$3714                        Lab5
C:   00000C2D  A$Lab5$3715                        Lab5
C:   00000C30  A$Lab5$3716                        Lab5
C:   00000C33  A$Lab5$3717                        Lab5
C:   00000C35  A$Lab5$3718                        Lab5
C:   00000C37  A$Lab5$3719                        Lab5
C:   00000C38  A$Lab5$3720                        Lab5
C:   00000C3A  A$Lab5$3721                        Lab5
C:   00000C3B  A$Lab5$3722                        Lab5
C:   00000C3D  A$Lab5$3723                        Lab5
C:   00000C3F  A$Lab5$3724                        Lab5
C:   00000C41  A$Lab5$3725                        Lab5
C:   00000C44  A$Lab5$3726                        Lab5
C:   00000C46  A$Lab5$3727                        Lab5
C:   00000C48  A$Lab5$3730                        Lab5
C:   00000C48  C$Lab5.c$327$1$156                 Lab5
C:   00000C4B  A$Lab5$3731                        Lab5
C:   00000C4E  A$Lab5$3732                        Lab5
C:   00000C51  A$Lab5$3733                        Lab5
C:   00000C54  A$Lab5$3734                        Lab5
C:   00000C57  A$Lab5$3735                        Lab5
C:   00000C5A  A$Lab5$3736                        Lab5
C:   00000C5D  A$Lab5$3737                        Lab5
C:   00000C60  A$Lab5$3741                        Lab5
C:   00000C60  C$Lab5.c$329$1$156                 Lab5
C:   00000C63  A$Lab5$3744                        Lab5
C:   00000C63  C$Lab5.c$330$1$156                 Lab5
C:   00000C66  A$Lab5$3747                        Lab5
C:   00000C66  C$Lab5.c$331$1$156                 Lab5
C:   00000C66  XG$read_accels$0$0                 Lab5
C:   00000C67  A$Lab5$3760                        Lab5
C:   00000C67  C$Lab5.c$333$1$156                 Lab5
C:   00000C67  C$Lab5.c$335$1$162                 Lab5
C:   00000C67  G$set_servo_PWM$0$0                Lab5
ASxxxx Linker V03.00 + NoICE + sdld,  page 66.
Hexadecimal  [32-Bits]

Area                                    Addr        Size        Decimal Bytes (Attributes)
--------------------------------        ----        ----        ------- ----- ------------
CSEG                                000000F1    000018D4 =        6356. bytes (REL,CON,CODE)

      Value  Global                              Global Defined In Module
      -----  --------------------------------   ------------------------
C:   00000C67  _set_servo_PWM                     Lab5
C:   00000C69  A$Lab5$3761                        Lab5
C:   00000C6A  A$Lab5$3762                        Lab5
C:   00000C6C  A$Lab5$3763                        Lab5
C:   00000C6E  A$Lab5$3764                        Lab5
C:   00000C70  A$Lab5$3765                        Lab5
C:   00000C72  A$Lab5$3766                        Lab5
C:   00000C74  A$Lab5$3767                        Lab5
C:   00000C77  A$Lab5$3768                        Lab5
C:   00000C79  A$Lab5$3769                        Lab5
C:   00000C7B  A$Lab5$3770                        Lab5
C:   00000C7D  A$Lab5$3771                        Lab5
C:   00000C7E  A$Lab5$3772                        Lab5
C:   00000C80  A$Lab5$3773                        Lab5
C:   00000C82  A$Lab5$3774                        Lab5
C:   00000C84  A$Lab5$3775                        Lab5
C:   00000C86  A$Lab5$3776                        Lab5
C:   00000C89  A$Lab5$3777                        Lab5
C:   00000C8C  A$Lab5$3778                        Lab5
C:   00000C8F  A$Lab5$3779                        Lab5
C:   00000C91  A$Lab5$3780                        Lab5
C:   00000C94  A$Lab5$3781                        Lab5
C:   00000C96  A$Lab5$3782                        Lab5
C:   00000C98  A$Lab5$3783                        Lab5
C:   00000C9A  A$Lab5$3784                        Lab5
C:   00000C9B  A$Lab5$3785                        Lab5
C:   00000C9D  A$Lab5$3786                        Lab5
C:   00000C9F  A$Lab5$3787                        Lab5
C:   00000CA1  A$Lab5$3788                        Lab5
C:   00000CA3  A$Lab5$3789                        Lab5
C:   00000CA5  A$Lab5$3790                        Lab5
C:   00000CA7  A$Lab5$3791                        Lab5
C:   00000CA9  A$Lab5$3792                        Lab5
C:   00000CAC  A$Lab5$3793                        Lab5
C:   00000CAF  A$Lab5$3794                        Lab5
C:   00000CB1  A$Lab5$3795                        Lab5
C:   00000CB4  A$Lab5$3796                        Lab5
C:   00000CB6  A$Lab5$3797                        Lab5
C:   00000CB8  A$Lab5$3798                        Lab5
C:   00000CBA  A$Lab5$3799                        Lab5
C:   00000CBB  A$Lab5$3800                        Lab5
C:   00000CBD  A$Lab5$3801                        Lab5
C:   00000CBF  A$Lab5$3802                        Lab5
C:   00000CC1  A$Lab5$3803                        Lab5
C:   00000CC3  A$Lab5$3804                        Lab5
C:   00000CC5  A$Lab5$3805                        Lab5
C:   00000CC7  A$Lab5$3806                        Lab5
C:   00000CC8  A$Lab5$3807                        Lab5
C:   00000CCB  A$Lab5$3808                        Lab5
C:   00000CCE  A$Lab5$3809                        Lab5
C:   00000CD1  A$Lab5$3812                        Lab5
ASxxxx Linker V03.00 + NoICE + sdld,  page 67.
Hexadecimal  [32-Bits]

Area                                    Addr        Size        Decimal Bytes (Attributes)
--------------------------------        ----        ----        ------- ----- ------------
CSEG                                000000F1    000018D4 =        6356. bytes (REL,CON,CODE)

      Value  Global                              Global Defined In Module
      -----  --------------------------------   ------------------------
C:   00000CD1  C$Lab5.c$337$1$162                 Lab5
C:   00000CD2  A$Lab5$3813                        Lab5
C:   00000CD4  A$Lab5$3814                        Lab5
C:   00000CD6  A$Lab5$3815                        Lab5
C:   00000CD8  A$Lab5$3816                        Lab5
C:   00000CDB  A$Lab5$3817                        Lab5
C:   00000CDE  A$Lab5$3818                        Lab5
C:   00000CE0  A$Lab5$3819                        Lab5
C:   00000CE2  A$Lab5$3822                        Lab5
C:   00000CE2  C$Lab5.c$338$1$162                 Lab5
C:   00000CE5  A$Lab5$3823                        Lab5
C:   00000CE8  A$Lab5$3824                        Lab5
C:   00000CEA  A$Lab5$3828                        Lab5
C:   00000CEA  C$Lab5.c$339$1$162                 Lab5
C:   00000CEB  A$Lab5$3829                        Lab5
C:   00000CED  A$Lab5$3830                        Lab5
C:   00000CEF  A$Lab5$3831                        Lab5
C:   00000CF1  A$Lab5$3832                        Lab5
C:   00000CF3  A$Lab5$3833                        Lab5
C:   00000CF5  A$Lab5$3834                        Lab5
C:   00000CF7  A$Lab5$3837                        Lab5
C:   00000CF7  C$Lab5.c$340$1$162                 Lab5
C:   00000CFA  A$Lab5$3838                        Lab5
C:   00000CFD  A$Lab5$3842                        Lab5
C:   00000CFD  C$Lab5.c$342$1$162                 Lab5
C:   00000CFF  A$Lab5$3843                        Lab5
C:   00000D01  A$Lab5$3844                        Lab5
C:   00000D03  A$Lab5$3845                        Lab5
C:   00000D04  A$Lab5$3846                        Lab5
C:   00000D05  A$Lab5$3847                        Lab5
C:   00000D07  A$Lab5$3848                        Lab5
C:   00000D09  A$Lab5$3849                        Lab5
C:   00000D0A  A$Lab5$3850                        Lab5
C:   00000D0C  A$Lab5$3853                        Lab5
C:   00000D0C  C$Lab5.c$343$1$162                 Lab5
C:   00000D0C  XG$set_servo_PWM$0$0               Lab5
C:   00000D0D  A$Lab5$3866                        Lab5
C:   00000D0D  C$Lab5.c$345$1$162                 Lab5
C:   00000D0D  C$Lab5.c$347$1$164                 Lab5
C:   00000D0D  G$set_drive_PWM$0$0                Lab5
C:   00000D0D  _set_drive_PWM                     Lab5
C:   00000D0F  A$Lab5$3867                        Lab5
C:   00000D10  A$Lab5$3868                        Lab5
C:   00000D12  A$Lab5$3869                        Lab5
C:   00000D14  A$Lab5$3870                        Lab5
C:   00000D16  A$Lab5$3871                        Lab5
C:   00000D18  A$Lab5$3872                        Lab5
C:   00000D1A  A$Lab5$3873                        Lab5
C:   00000D1C  A$Lab5$3874                        Lab5
C:   00000D1E  A$Lab5$3875                        Lab5
C:   00000D20  A$Lab5$3876                        Lab5
ASxxxx Linker V03.00 + NoICE + sdld,  page 68.
Hexadecimal  [32-Bits]

Area                                    Addr        Size        Decimal Bytes (Attributes)
--------------------------------        ----        ----        ------- ----- ------------
CSEG                                000000F1    000018D4 =        6356. bytes (REL,CON,CODE)

      Value  Global                              Global Defined In Module
      -----  --------------------------------   ------------------------
C:   00000D22  A$Lab5$3877                        Lab5
C:   00000D25  A$Lab5$3878                        Lab5
C:   00000D27  A$Lab5$3879                        Lab5
C:   00000D2A  A$Lab5$3880                        Lab5
C:   00000D2C  A$Lab5$3881                        Lab5
C:   00000D2E  A$Lab5$3882                        Lab5
C:   00000D30  A$Lab5$3883                        Lab5
C:   00000D32  A$Lab5$3884                        Lab5
C:   00000D34  A$Lab5$3887                        Lab5
C:   00000D34  C$Lab5.c$348$1$164                 Lab5
C:   00000D36  A$Lab5$3888                        Lab5
C:   00000D37  A$Lab5$3889                        Lab5
C:   00000D39  A$Lab5$3890                        Lab5
C:   00000D3B  A$Lab5$3891                        Lab5
C:   00000D3D  A$Lab5$3892                        Lab5
C:   00000D3F  A$Lab5$3893                        Lab5
C:   00000D41  A$Lab5$3894                        Lab5
C:   00000D44  A$Lab5$3895                        Lab5
C:   00000D47  A$Lab5$3896                        Lab5
C:   00000D4A  A$Lab5$3897                        Lab5
C:   00000D4C  A$Lab5$3898                        Lab5
C:   00000D4E  A$Lab5$3899                        Lab5
C:   00000D50  A$Lab5$3900                        Lab5
C:   00000D52  A$Lab5$3901                        Lab5
C:   00000D55  A$Lab5$3902                        Lab5
C:   00000D57  A$Lab5$3903                        Lab5
C:   00000D59  A$Lab5$3904                        Lab5
C:   00000D5B  A$Lab5$3905                        Lab5
C:   00000D5C  A$Lab5$3906                        Lab5
C:   00000D5D  A$Lab5$3907                        Lab5
C:   00000D5F  A$Lab5$3908                        Lab5
C:   00000D61  A$Lab5$3909                        Lab5
C:   00000D62  A$Lab5$3910                        Lab5
C:   00000D64  A$Lab5$3913                        Lab5
C:   00000D64  C$Lab5.c$350$1$164                 Lab5
C:   00000D65  A$Lab5$3914                        Lab5
C:   00000D67  A$Lab5$3915                        Lab5
C:   00000D69  A$Lab5$3916                        Lab5
C:   00000D6B  A$Lab5$3917                        Lab5
C:   00000D6E  A$Lab5$3918                        Lab5
C:   00000D71  A$Lab5$3919                        Lab5
C:   00000D73  A$Lab5$3920                        Lab5
C:   00000D75  A$Lab5$3923                        Lab5
C:   00000D75  C$Lab5.c$351$1$164                 Lab5
C:   00000D78  A$Lab5$3924                        Lab5
C:   00000D7B  A$Lab5$3928                        Lab5
C:   00000D7B  C$Lab5.c$352$1$164                 Lab5
C:   00000D7C  A$Lab5$3929                        Lab5
C:   00000D7E  A$Lab5$3930                        Lab5
C:   00000D80  A$Lab5$3931                        Lab5
C:   00000D82  A$Lab5$3932                        Lab5
ASxxxx Linker V03.00 + NoICE + sdld,  page 69.
Hexadecimal  [32-Bits]

Area                                    Addr        Size        Decimal Bytes (Attributes)
--------------------------------        ----        ----        ------- ----- ------------
CSEG                                000000F1    000018D4 =        6356. bytes (REL,CON,CODE)

      Value  Global                              Global Defined In Module
      -----  --------------------------------   ------------------------
C:   00000D85  A$Lab5$3933                        Lab5
C:   00000D88  A$Lab5$3934                        Lab5
C:   00000D8A  A$Lab5$3935                        Lab5
C:   00000D8C  A$Lab5$3938                        Lab5
C:   00000D8C  C$Lab5.c$353$1$164                 Lab5
C:   00000D8F  A$Lab5$3939                        Lab5
C:   00000D92  A$Lab5$3940                        Lab5
C:   00000D94  A$Lab5$3944                        Lab5
C:   00000D94  C$Lab5.c$354$1$164                 Lab5
C:   00000D95  A$Lab5$3945                        Lab5
C:   00000D97  A$Lab5$3946                        Lab5
C:   00000D99  A$Lab5$3947                        Lab5
C:   00000D9B  A$Lab5$3948                        Lab5
C:   00000D9D  A$Lab5$3949                        Lab5
C:   00000D9F  A$Lab5$3950                        Lab5
C:   00000DA1  A$Lab5$3953                        Lab5
C:   00000DA1  C$Lab5.c$355$1$164                 Lab5
C:   00000DA4  A$Lab5$3954                        Lab5
C:   00000DA7  A$Lab5$3958                        Lab5
C:   00000DA7  C$Lab5.c$357$1$164                 Lab5
C:   00000DA8  A$Lab5$3959                        Lab5
C:   00000DAA  A$Lab5$3960                        Lab5
C:   00000DAC  A$Lab5$3961                        Lab5
C:   00000DAE  A$Lab5$3962                        Lab5
C:   00000DB0  A$Lab5$3963                        Lab5
C:   00000DB2  A$Lab5$3964                        Lab5
C:   00000DB4  A$Lab5$3967                        Lab5
C:   00000DB4  C$Lab5.c$358$1$164                 Lab5
C:   00000DB7  A$Lab5$3968                        Lab5
C:   00000DB9  A$Lab5$3972                        Lab5
C:   00000DB9  C$Lab5.c$360$1$164                 Lab5
C:   00000DBC  A$Lab5$3976                        Lab5
C:   00000DBC  C$Lab5.c$362$1$164                 Lab5
C:   00000DBF  A$Lab5$3979                        Lab5
C:   00000DBF  C$Lab5.c$363$1$164                 Lab5
C:   00000DC1  A$Lab5$3980                        Lab5
C:   00000DC3  A$Lab5$3981                        Lab5
C:   00000DC5  A$Lab5$3982                        Lab5
C:   00000DC6  A$Lab5$3983                        Lab5
C:   00000DC7  A$Lab5$3984                        Lab5
C:   00000DC9  A$Lab5$3985                        Lab5
C:   00000DCB  A$Lab5$3986                        Lab5
C:   00000DCC  A$Lab5$3987                        Lab5
C:   00000DCE  A$Lab5$3991                        Lab5
C:   00000DCE  C$Lab5.c$364$1$164                 Lab5
C:   00000DD1  A$Lab5$3994                        Lab5
C:   00000DD1  C$Lab5.c$365$2$165                 Lab5
C:   00000DD4  A$Lab5$3997                        Lab5
C:   00000DD4  C$Lab5.c$366$2$165                 Lab5
C:   00000DD7  A$Lab5$3998                        Lab5
C:   00000DDA  A$Lab5$4002                        Lab5
ASxxxx Linker V03.00 + NoICE + sdld,  page 70.
Hexadecimal  [32-Bits]

Area                                    Addr        Size        Decimal Bytes (Attributes)
--------------------------------        ----        ----        ------- ----- ------------
CSEG                                000000F1    000018D4 =        6356. bytes (REL,CON,CODE)

      Value  Global                              Global Defined In Module
      -----  --------------------------------   ------------------------
C:   00000DDA  C$Lab5.c$368$1$164                 Lab5
C:   00000DDA  XG$set_drive_PWM$0$0               Lab5
C:   00000DDB  ___fssub                           _fssub
C:   00000DE6  ___fsmul                           _fsmul
C:   00000E89  fsgetargs                          _fsget2args
C:   00000EB7  fs_normalize_a                     _fsnormalize
C:   00000EEA  __gptrput                          _gptrput
C:   00000F05  _abs                               abs
C:   00000F12  __mulint                           _mulint
C:   00000F12  __mulint_dummy                     _mulint
C:   00000F9F  _vsprintf                          sprintf
C:   00000FDC  _sprintf                           sprintf
C:   0000102A  ___fsadd                           _fsadd
C:   0000102D  fsadd_direct_entry                 _fsadd
C:   00001083  __divuint                          _divuint
C:   000010AC  ___sint2fs                         _sint2fs
C:   000010B9  ___fs2sint                         _fs2sint
C:   000010ED  ___fs2uint                         _fs2uint
C:   000010F8  fs_round_and_return                _fsreturnval
C:   00001110  fs_zerocheck_return                _fsreturnval
C:   00001119  fs_return_zero                     _fsreturnval
C:   00001121  fs_direct_return                   _fsreturnval
C:   0000112F  fs_return_inf                      _fsreturnval
C:   0000113C  fs_return_nan                      _fsreturnval
C:   00001152  _vprintf                           vprintf
C:   0000116B  _printf                            vprintf
C:   00001242  __print_format                     printf_large
C:   0000174E  fs_swap_a_b                        _fsswapargs
C:   00001768  _strlen                            _strlen
C:   00001780  ___fsdiv                           _fsdiv
C:   00001843  __gptrget                          _gptrget
C:   0000185F  ___uchar2fs                        _uchar2fs
C:   0000186A  ___fs2uchar                        _fs2uchar
C:   00001872  ___slong2fs                        _slong2fs
C:   0000187B  slong2fs_doit                      _slong2fs
C:   0000189F  ___ulong2fs                        _ulong2fs
C:   000018A8  ulong2fs_doit                      _ulong2fs
C:   000018B2  __divsint                          _divsint
C:   000018EA  fs_rshift_a                        _fsrshift
C:   0000192D  ___fs2slong                        _fs2slong
C:   00001988  __sdcc_external_startup            _startup
C:   0000198C  fsgetarg                           _fsget1arg
C:   0000199E  ___fs2ulong                        _fs2ulong
C:   000019A0  fs2ulong_begin                     _fs2ulong

ASxxxx Linker V03.00 + NoICE + sdld,  page 71.
Hexadecimal  [32-Bits]

Area                                    Addr        Size        Decimal Bytes (Attributes)
--------------------------------        ----        ----        ------- ----- ------------
CONST                               000019C5    000001DB =         475. bytes (REL,CON,CODE)

      Value  Global                              Global Defined In Module
      -----  --------------------------------   ------------------------
C:   000019C5  FLab5$__str_0$0$0                  Lab5
C:   000019DB  FLab5$__str_1$0$0                  Lab5
C:   000019EB  FLab5$__str_2$0$0                  Lab5
C:   000019EE  FLab5$__str_3$0$0                  Lab5
C:   00001A0E  FLab5$__str_4$0$0                  Lab5
C:   00001A2B  FLab5$__str_5$0$0                  Lab5
C:   00001A45  FLab5$__str_6$0$0                  Lab5
C:   00001A63  FLab5$__str_7$0$0                  Lab5
C:   00001A83  FLab5$__str_8$0$0                  Lab5
C:   00001AAA  FLab5$__str_9$0$0                  Lab5
C:   00001AE6  FLab5$__str_10$0$0                 Lab5
C:   00001AF1  FLab5$__str_11$0$0                 Lab5
C:   00001B35  FLab5$__str_12$0$0                 Lab5
C:   00001B4C  FLab5$__str_13$0$0                 Lab5
C:   00001B70  FLab5$__str_14$0$0                 Lab5
C:   00001B84  FLab5$__str_15$0$0                 Lab5

ASxxxx Linker V03.00 + NoICE + sdld,  page 72.

Files Linked                              [ module(s) ]

C:\SiLabs\LITEC\Lab5\Lab5.rel             [  ]


Libraries Linked                          [ object file ]

C:\Program Files\SDCC\bin\..\lib\small/libfloat.lib
                                          [ _fssub.rel ]
C:\Program Files\SDCC\bin\..\lib\small/libfloat.lib
                                          [ _fsmul.rel ]
C:\Program Files\SDCC\bin\..\lib\small/libfloat.lib
                                          [ _fsget2args.rel ]
C:\Program Files\SDCC\bin\..\lib\small/mcs51.lib
                                          [ crtclear.rel ]
C:\Program Files\SDCC\bin\..\lib\small/libfloat.lib
                                          [ _fsnormalize.rel ]
C:\Program Files\SDCC\bin\..\lib\small/mcs51.lib
                                          [ crtxinit.rel ]
C:\Program Files\SDCC\bin\..\lib\small/libsdcc.lib
                                          [ _gptrput.rel ]
C:\Program Files\SDCC\bin\..\lib\small/libsdcc.lib
                                          [ abs.rel ]
C:\Program Files\SDCC\bin\..\lib\small/libint.lib
                                          [ _mulint.rel ]
C:\Program Files\SDCC\bin\..\lib\small/libsdcc.lib
                                          [ sprintf.rel ]
C:\Program Files\SDCC\bin\..\lib\small/mcs51.lib
                                          [ crtxclear.rel ]
C:\Program Files\SDCC\bin\..\lib\small/libfloat.lib
                                          [ _fsadd.rel ]
C:\Program Files\SDCC\bin\..\lib\small/libint.lib
                                          [ _divuint.rel ]
C:\Program Files\SDCC\bin\..\lib\small/libfloat.lib
                                          [ _sint2fs.rel ]
C:\Program Files\SDCC\bin\..\lib\small/libfloat.lib
                                          [ _fs2sint.rel ]
C:\Program Files\SDCC\bin\..\lib\small/libfloat.lib
                                          [ _fs2uint.rel ]
C:\Program Files\SDCC\bin\..\lib\small/libfloat.lib
                                          [ _fsreturnval.rel ]
C:\Program Files\SDCC\bin\..\lib\small/libsdcc.lib
                                          [ _bp.rel ]
C:\Program Files\SDCC\bin\..\lib\small/libsdcc.lib
                                          [ vprintf.rel ]
C:\Program Files\SDCC\bin\..\lib\small/libsdcc.lib
                                          [ printf_large.rel ]
C:\Program Files\SDCC\bin\..\lib\small/libfloat.lib
                                          [ _fsswapargs.rel ]
C:\Program Files\SDCC\bin\..\lib\small/libsdcc.lib
                                          [ _strlen.rel ]
C:\Program Files\SDCC\bin\..\lib\small/libfloat.lib
                                          [ _fsdiv.rel ]
C:\Program Files\SDCC\bin\..\lib\small/mcs51.lib
                                          [ crtstart.rel ]
C:\Program Files\SDCC\bin\..\lib\small/libsdcc.lib
                                          [ _gptrget.rel ]
C:\Program Files\SDCC\bin\..\lib\small/libfloat.lib
                                          [ _uchar2fs.rel ]
C:\Program Files\SDCC\bin\..\lib\small/libfloat.lib
                                          [ _fs2uchar.rel ]
C:\Program Files\SDCC\bin\..\lib\small/libfloat.lib
                                          [ _slong2fs.rel ]
C:\Program Files\SDCC\bin\..\lib\small/libfloat.lib
                                          [ _ulong2fs.rel ]
C:\Program Files\SDCC\bin\..\lib\small/libint.lib
                                          [ _divsint.rel ]
C:\Program Files\SDCC\bin\..\lib\small/libfloat.lib
                                          [ _fsrshift.rel ]
C:\Program Files\SDCC\bin\..\lib\small/libfloat.lib
                                          [ _fs2slong.rel ]
C:\Program Files\SDCC\bin\..\lib\small/libsdcc.lib
                                          [ _startup.rel ]
C:\Program Files\SDCC\bin\..\lib\small/libfloat.lib
                                          [ _fsget1arg.rel ]
C:\Program Files\SDCC\bin\..\lib\small/libfloat.lib
                                          [ _fs2ulong.rel ]

ASxxxx Linker V03.00 + NoICE + sdld,  page 73.

User Base Address Definitions

HOME = 0x0000
XSEG = 0x0001
PSEG = 0x0001
ISEG = 0x0000
BSEG = 0x0000

